(dp0
S'close_price'
p1
(dp2
VAXP
p3
(lp4
F96.660004
aF96.07
aF95.639999
aF96.589996
aF99.050003
aF97.66999799999999
aF95.370003
aF94.529999
aF94.389999
aF95.610001
aF94.839996
aF94.949997
aF94.739998
aF91.410004
aF90.449997
aF92.620003
aF91.41999799999999
aF92.209999
aF93.279999
aF91.0
aF92.739998
aF93.58000200000001
aF94.199997
aF91.910004
aF92.139999
aF93.0
aF91.599998
aF93.349998
aF93.029999
aF93.599998
aF93.860001
aF95.150002
aF102.370003
aF100.790001
aF100.610001
aF100.440002
aF98.779999
aF100.230003
aF99.610001
aF98.75
aF98.58000200000001
aF97.629997
aF97.139999
aF98.349998
aF98.58000200000001
aF99.739998
aF100.5
aF101.379997
aF101.41999799999999
aF101.290001
aF100.739998
aF100.589996
aF101.220001
aF100.989998
aF102.040001
aF102.699997
aF101.93
aF102.010002
aF101.099998
aF97.720001
aF98.989998
aF98.300003
aF98.25
aF99.449997
aF99.309998
aF100.970001
aF101.480003
aF101.0
aF101.199997
aF100.730003
aF100.019997
aF99.760002
aF98.519997
aF98.470001
aF97.139999
aF96.41999799999999
aF96.629997
aF97.230003
aF98.540001
aF98.209999
aF96.959999
aF96.970001
aF98.0
aF99.0
aF97.839996
aF98.529999
aF98.519997
aF99.910004
aF99.910004
aF100.300003
aF101.150002
aF100.5
aF100.690002
aF101.150002
aF102.980003
aF100.16999799999999
aF100.150002
aF101.220001
aF101.709999
aF102.629997
aF102.5
aF103.849998
aF100.849998
aF99.519997
aF99.449997
aF99.730003
aF100.790001
aF100.91999799999999
aF101.970001
aF102.779999
aF102.989998
aF101.58000200000001
aF101.809998
aF102.18
aF101.510002
aF102.650002
aF103.029999
aF103.83000200000001
aF104.809998
aF105.83000200000001
aF105.370003
aF105.760002
aF107.050003
aF107.279999
aF106.709999
aF106.230003
aF105.980003
aF107.010002
aF105.68
aF105.400002
aF106.08000200000001
aF107.290001
aF108.309998
aF107.879997
aF108.660004
aF109.559998
aF109.199997
aF109.639999
aF110.099998
aF111.110001
aF110.900002
aF109.849998
aF109.870003
aF108.010002
aF107.849998
aF106.489998
aF107.900002
aF108.389999
aF108.449997
aF107.739998
aF107.230003
aF106.989998
aF106.660004
aF103.57
aF101.58000200000001
aF103.0
aF102.620003
aF104.269997
aF104.339996
aF102.839996
aF106.730003
aF104.510002
aF104.379997
aF101.839996
aF103.599998
aF101.25
aF101.190002
aF102.08000200000001
aF102.730003
aF104.040001
aF103.709999
aF105.209999
aF104.980003
aF107.309998
aF108.5
aF108.279999
aF106.489998
aF107.860001
aF107.769997
aF109.599998
aF109.459999
aF108.25
aF106.089996
aF106.5
aF105.739998
aF109.68
aF110.110001
aF112.889999
aF111.309998
aF112.269997
aF112.360001
aF107.639999
aF108.25
aF106.68
aF105.790001
aF105.400002
aF107.480003
aF106.699997
aF105.699997
aF101.18
aF101.019997
aF98.769997
aF95.769997
aF91.33000200000001
aF89.5
aF93.839996
aF94.68
aF94.41999799999999
aF95.32
aF95.68
aF93.43
aF97.639999
aF98.16999799999999
aF98.650002
aF98.83000200000001
aF98.260002
aF98.550003
aF98.440002
aF97.989998
aF99.410004
aF99.489998
aF100.480003
aF99.83000200000001
aF99.709999
aF99.720001
aF100.769997
aF100.379997
aF100.959999
aF102.66999799999999
aF102.699997
aF103.059998
aF103.41999799999999
aF103.900002
aF104.959999
aF104.389999
aF104.519997
aF105.410004
aF107.0
aF107.559998
aF106.620003
aF107.379997
aF106.5
aF106.779999
aF106.610001
aF107.440002
aF106.93
aF106.940002
aF107.41999799999999
aF107.739998
aF108.900002
asVDWDP
p5
(lp6
F69.660004
aF70.790001
aF70.16999799999999
aF70.58000200000001
aF72.230003
aF71.339996
aF70.57
aF68.989998
aF67.879997
aF67.959999
aF66.559998
aF66.389999
aF67.43
aF65.620003
aF63.060001
aF64.480003
aF63.639998999999996
aF62.41
aF63.709998999999996
aF62.040001000000004
aF63.32
aF63.689999
aF65.440002
aF63.709998999999996
aF63.689999
aF65.889999
aF64.730003
aF66.470001
aF66.16999799999999
aF67.010002
aF67.550003
aF68.059998
aF66.529999
aF66.040001
aF65.599998
aF63.18
aF63.639998999999996
aF64.040001
aF64.32
aF63.240002000000004
aF63.060001
aF63.490002000000004
aF63.470001
aF64.470001
aF64.91999799999999
aF64.230003
aF66.029999
aF66.949997
aF66.93
aF67.529999
aF67.150002
aF68.029999
aF68.160004
aF67.57
aF68.629997
aF67.470001
aF67.040001
aF66.379997
aF65.709999
aF63.939999
aF64.790001
aF64.110001
aF66.16999799999999
aF67.129997
aF67.889999
aF70.040001
aF69.41999799999999
aF69.489998
aF69.489998
aF69.779999
aF68.57
aF68.379997
aF67.75
aF67.790001
aF66.360001
aF65.889999
aF65.279999
aF67.0
aF65.980003
aF66.309998
aF65.610001
aF66.150002
aF65.91999799999999
aF65.769997
aF65.150002
aF66.07
aF65.93
aF66.75
aF67.809998
aF66.300003
aF66.25
aF66.360001
aF65.720001
aF67.059998
aF66.589996
aF66.139999
aF65.82
aF65.699997
aF66.91999799999999
aF67.529999
aF68.25
aF68.370003
aF68.050003
aF68.769997
aF67.959999
aF66.440002
aF66.82
aF67.760002
aF68.139999
aF67.660004
aF69.019997
aF67.739998
aF66.589996
aF67.559998
aF66.459999
aF67.08000200000001
aF67.790001
aF68.480003
aF68.83000200000001
aF68.760002
aF68.110001
aF69.209999
aF70.809998
aF70.739998
aF71.440002
aF70.199997
aF70.129997
aF69.720001
aF70.050003
aF70.08000200000001
aF70.0
aF70.059998
aF70.08000200000001
aF69.239998
aF68.91999799999999
aF68.58000200000001
aF68.82
aF68.029999
aF68.730003
aF70.029999
aF69.690002
aF68.199997
aF67.949997
aF66.889999
aF65.33000200000001
aF64.309998
aF64.82
aF64.82
aF64.389999
aF64.010002
aF63.189999
aF63.16
aF60.84
aF59.32
aF58.98
aF59.66
aF58.939999
aF60.259997999999996
aF59.57
aF58.580002
aF57.490002000000004
aF56.07
aF54.68
aF52.68
aF52.919998
aF52.0
aF52.07
aF52.630001
aF53.919998
aF58.27
aF57.73
aF57.630001
aF58.02
aF59.830002
aF59.439999
aF58.68
aF57.700001
aF57.470001
aF57.98
aF58.73
aF59.189999
aF57.799999
aF56.369999
aF56.970001
aF56.43
aF57.66
aF57.18
aF57.220001
aF57.240002000000004
aF57.849998
aF59.16
aF56.490002000000004
aF55.919998
aF53.75
aF53.799999
aF53.259997999999996
aF54.349998
aF53.779999
aF52.779999
aF51.68
aF52.290001000000004
aF52.16
aF51.040001000000004
aF50.59
aF49.09
aF52.23
aF53.330002
aF53.02
aF53.48
aF54.52
aF52.509997999999996
aF54.73
aF54.759997999999996
aF55.389998999999996
aF55.619999
aF55.68
aF55.279999
aF55.380001
aF55.009997999999996
aF55.400002
aF57.040001000000004
aF58.060001
aF56.240002000000004
aF56.43
aF56.330002
aF57.759997999999996
aF58.130001
aF58.52
aF59.279999
aF53.810001
aF53.470001
aF53.130001
aF54.259997999999996
aF53.209998999999996
aF52.18
aF51.709998999999996
aF52.0
aF53.360001000000004
aF53.139998999999996
aF52.66
aF54.240002000000004
aF54.59
aF56.240002000000004
aF55.259997999999996
aF54.970001
aF56.080002
aF55.880001
aF54.720001
aF53.23
aF53.34
asVBA
p7
(lp8
F352.75
aF348.920013
aF347.040009
aF348.730011
aF354.519989
aF344.190002
aF338.670013
aF330.26001
aF329.980011
aF330.47000099999997
aF331.76001
aF337.630005
aF337.100006
aF319.609985
aF321.0
aF328.97000099999997
aF321.119995
aF320.019989
aF327.880005
aF322.440002
aF330.820007
aF327.440002
aF336.399994
aF326.119995
aF322.480011
aF334.829987
aF327.359985
aF337.480011
aF329.27999900000003
aF331.769989
aF336.72000099999997
aF341.0
aF340.640015
aF338.670013
aF338.839996
aF329.059998
aF342.859985
aF342.790009
aF340.880005
aF333.559998
aF329.540009
aF324.190002
aF330.690002
aF334.429993
aF340.429993
aF338.369995
aF344.5
aF344.070007
aF342.459991
aF344.589996
aF342.119995
aF340.97000099999997
aF344.140015
aF351.230011
aF363.920013
aF355.019989
aF359.209991
aF359.0
aF360.089996
aF352.480011
aF358.190002
aF352.160004
aF356.72000099999997
aF360.730011
aF360.100006
aF371.559998
aF368.52999900000003
aF369.5
aF370.940002
aF370.619995
aF363.850006
aF362.420013
aF357.880005
aF354.73999
aF341.119995
aF342.690002
aF337.660004
aF338.910004
aF331.200012
aF331.299988
aF329.820007
aF334.649994
aF335.51001
aF336.079987
aF332.929993
aF333.179993
aF334.640015
aF341.920013
aF347.160004
aF340.600006
aF346.02999900000003
aF350.790009
aF356.100006
aF356.880005
aF360.230011
aF355.329987
aF354.899994
aF353.269989
aF358.269989
aF355.920013
aF359.320007
aF360.649994
aF351.059998
aF356.299988
aF352.76001
aF349.730011
aF348.440002
aF346.570007
aF350.76001
aF347.77999900000003
aF343.72000099999997
aF339.410004
aF338.359985
aF339.140015
aF331.76001
aF345.980011
aF346.399994
aF350.73999
aF353.769989
aF350.02999900000003
aF347.480011
aF349.380005
aF353.73999
aF351.209991
aF350.190002
aF346.899994
aF342.790009
aF346.25
aF346.679993
aF351.269989
aF349.27999900000003
aF341.859985
aF345.25
aF353.410004
aF355.459991
aF359.799988
aF355.959991
aF363.579987
aF365.22000099999997
aF367.459991
aF372.230011
aF367.98999
aF367.230011
aF365.02999900000003
aF367.390015
aF371.899994
aF382.290009
aF386.369995
aF392.299988
aF389.98999
aF386.47000099999997
aF385.769989
aF385.440002
aF367.47000099999997
aF358.109985
aF360.109985
aF358.880005
aF368.25
aF365.5
aF359.350006
aF356.26001
aF355.980011
aF350.049988
aF354.649994
aF363.769989
aF359.269989
aF335.589996
aF349.910004
aF354.859985
aF363.070007
aF357.75
aF361.980011
aF366.47000099999997
aF372.019989
aF370.769989
aF369.339996
aF357.02999900000003
aF349.51001
aF344.72000099999997
aF341.570007
aF335.950012
aF320.940002
aF317.700012
aF317.320007
aF312.320007
aF316.359985
aF318.02999900000003
aF333.5
aF342.559998
aF346.76001
aF359.959991
aF342.5
aF331.899994
aF323.22000099999997
aF326.350006
aF322.02999900000003
aF326.690002
aF325.47000099999997
aF318.75
aF316.130005
aF328.059998
aF319.549988
aF313.049988
aF304.549988
aF294.160004
aF313.929993
aF317.140015
aF316.380005
aF322.5
aF323.809998
aF310.899994
aF327.079987
aF328.109985
aF340.52999900000003
aF343.829987
aF352.609985
aF352.899994
aF350.359985
aF352.23999
aF352.059998
aF359.089996
aF364.730011
aF357.899994
aF358.609985
aF358.269989
aF364.200012
aF362.97000099999997
aF364.910004
aF387.72000099999997
aF385.619995
aF387.429993
aF397.0
aF410.179993
aF411.109985
aF405.170013
aF404.910004
aF403.950012
aF410.72000099999997
aF410.579987
aF409.820007
aF417.97000099999997
aF416.26001
aF421.549988
aF417.579987
aF424.049988
aF426.869995
aF426.76998899999995
aF435.44000199999994
aF439.959991
aF440.619995
asVCVX
p9
(lp10
F113.150002
aF113.650002
aF113.839996
aF113.349998
aF117.220001
aF116.790001
aF116.459999
aF115.129997
aF115.58000200000001
aF115.400002
aF113.889999
aF114.5
aF117.040001
aF113.699997
aF112.980003
aF115.349998
aF114.660004
aF112.099998
aF114.040001
aF112.239998
aF114.83000200000001
aF114.480003
aF117.290001
aF114.760002
aF115.980003
aF118.849998
aF119.25
aF119.230003
aF119.91999799999999
aF120.699997
aF121.459999
aF123.82
aF123.709999
aF122.309998
aF123.58000200000001
aF122.540001
aF122.720001
aF124.220001
aF126.620003
aF125.110001
aF124.860001
aF125.489998
aF126.010002
aF125.529999
aF124.940002
aF126.57
aF128.720001
aF128.820007
aF129.83999599999999
aF130.389999
aF129.740005
aF129.559998
aF129.46000700000002
aF127.860001
aF129.369995
aF128.229996
aF128.699997
aF126.610001
aF122.190002
aF121.389999
aF125.160004
aF124.300003
aF123.849998
aF122.260002
aF122.730003
aF123.379997
aF126.959999
aF126.440002
aF127.559998
aF127.08000200000001
aF127.07
aF126.510002
aF124.040001
aF125.970001
aF125.540001
aF125.290001
aF122.589996
aF125.099998
aF122.610001
aF124.160004
aF126.0
aF125.660004
aF126.43
aF124.25
aF124.730003
aF123.980003
aF124.139999
aF125.989998
aF127.589996
aF123.519997
aF124.260002
aF124.040001
aF122.980003
aF121.910004
aF121.529999
aF121.66999799999999
aF122.269997
aF121.33000200000001
aF123.849998
aF124.900002
aF123.949997
aF125.970001
aF127.83000200000001
aF126.269997
aF125.389999
aF123.760002
aF124.050003
aF124.300003
aF125.18
aF123.879997
aF122.529999
aF123.339996
aF122.440002
aF122.58000200000001
aF117.940002
aF117.660004
aF117.800003
aF117.75
aF117.940002
aF118.91999799999999
aF118.099998
aF119.010002
aF120.349998
aF119.860001
aF120.220001
aF119.809998
aF118.459999
aF118.870003
aF118.91999799999999
aF115.230003
aF114.599998
aF114.480003
aF115.019997
aF115.790001
aF116.300003
aF117.379997
aF117.510002
aF118.129997
aF119.510002
aF119.41999799999999
aF121.129997
aF122.620003
aF123.370003
aF121.949997
aF122.470001
aF122.279999
aF124.389999
aF124.739998
aF125.309998
aF124.949997
aF125.33000200000001
aF124.839996
aF126.82
aF122.599998
aF118.43
aF117.769997
aF116.940002
aF117.510002
aF117.290001
aF117.470001
aF118.139999
aF117.209999
aF113.400002
aF110.209999
aF111.58000200000001
aF111.529999
aF108.93
aF110.849998
aF111.650002
aF111.16999799999999
aF114.730003
aF118.940002
aF118.900002
aF120.870003
aF119.360001
aF119.510002
aF117.389999
aF115.349998
aF115.720001
aF116.949997
aF119.059998
aF119.41999799999999
aF116.099998
aF117.57
aF113.599998
aF114.980003
aF115.209999
aF118.139999
aF118.849998
aF118.940002
aF120.66999799999999
aF117.239998
aF115.910004
aF115.489998
aF114.940002
aF115.470001
aF115.620003
aF115.940002
aF113.83000200000001
aF112.449997
aF109.739998
aF107.83000200000001
aF104.980003
aF104.209999
aF100.989998
aF107.389999
aF109.32
aF108.650002
aF108.790001
aF110.690002
aF108.57
aF110.82
aF112.260002
aF111.769997
aF113.269997
aF113.449997
aF112.540001
aF111.720001
aF112.120003
aF111.400002
aF111.959999
aF114.370003
aF112.339996
aF111.389999
aF113.510002
aF113.220001
aF112.16999799999999
aF111.83000200000001
aF113.010002
aF114.650002
aF118.370003
aF119.739998
aF119.480003
aF118.879997
aF118.230003
aF117.58000200000001
aF116.949997
aF118.720001
aF119.57
aF118.160004
aF119.349998
aF119.309998
aF120.279999
aF119.139999
aF119.389999
aF119.620003
aF119.940002
aF120.08000200000001
aF119.58000200000001
aF122.029999
asVCSCO
p11
(lp12
F44.52
aF44.290001000000004
aF44.200001
aF44.34
aF45.369999
aF45.549999
aF45.16
aF45.279999
aF45.330002
aF45.009997999999996
aF44.27
aF44.369999
aF44.310001
aF43.07
aF42.419998
aF44.060001
aF42.68
aF41.66
aF42.889998999999996
aF41.009997999999996
aF41.380001
aF41.200001
aF41.82
aF40.73
aF41.169998
aF42.509997999999996
aF42.43
aF43.34
aF43.0
aF43.299999
aF44.59
aF44.630001
aF44.560001
aF44.09
aF44.25
aF43.740002000000004
aF43.709998999999996
aF44.209998999999996
aF44.709998999999996
aF44.290001000000004
aF44.830002
aF43.860001000000004
aF44.439999
aF45.299999
aF45.73
aF45.709998999999996
aF46.040001000000004
aF46.299999
aF45.93
aF45.700001
aF45.48
aF45.16
aF43.459998999999996
aF43.209998999999996
aF43.75
aF43.650002
aF43.68
aF43.57
aF43.259997999999996
aF42.970001
aF42.849998
aF42.709998999999996
aF43.66
aF43.580002
aF43.669998
aF44.259997999999996
aF43.650002
aF43.48
aF43.689999
aF43.939999
aF44.009997999999996
aF44.689999
aF44.25
aF44.209998999999996
aF43.82
aF43.740002000000004
aF43.16
aF43.200001
aF42.290001000000004
aF42.549999
aF42.330002
aF42.939999
aF43.029999
aF42.810001
aF42.669998
aF42.560001
aF42.709998999999996
aF42.669998
aF42.860001000000004
aF42.57
aF43.580002
aF41.779999
aF42.5
aF42.34
aF42.209998999999996
aF42.400002
aF42.009997999999996
aF42.060001
aF42.389998999999996
aF43.16
aF43.529999
aF42.57
aF42.169998
aF42.290001000000004
aF41.860001000000004
aF42.529999
aF42.830002
aF43.299999
aF43.580002
aF43.84
aF43.779999
aF43.779999
aF43.75
aF44.0
aF43.860001000000004
aF45.16
aF45.869999
aF46.220001
aF45.779999
aF45.990002000000004
aF46.02
aF46.32
aF46.59
aF46.950001
aF47.48
aF47.150002
aF47.77
aF47.73
aF47.27
aF47.279999
aF47.049999
aF47.07
aF47.029999
aF46.889998999999996
aF47.240002000000004
aF47.400002
aF47.110001000000004
aF47.459998999999996
aF47.279999
aF47.73
aF48.560001
aF48.439999
aF48.470001
aF48.41
aF48.330002
aF48.650002
aF48.869999
aF49.009997999999996
aF49.139998999999996
aF48.380001
aF48.130001
aF47.52
aF47.490002000000004
aF45.630001
aF44.119999
aF45.709998999999996
aF44.669998
aF45.82
aF45.939999
aF45.459998999999996
aF45.34
aF45.759997999999996
aF45.419998
aF44.07
aF45.470001
aF44.25
aF43.84
aF44.580002
aF45.75
aF45.650002
aF45.48
aF46.139998999999996
aF46.5
aF47.900002
aF48.439999
aF47.110001000000004
aF45.619999
aF45.119999
aF44.330002
aF46.77
aF46.349998
aF45.75
aF44.490002000000004
aF44.889998999999996
aF44.540001000000004
aF45.57
aF46.119999
aF47.290001000000004
aF47.34
aF47.869999
aF48.740002000000004
aF47.349998
aF48.389998999999996
aF46.439999
aF46.860001000000004
aF47.09
aF47.419998
aF47.470001
aF45.82
aF44.200001
aF44.060001
aF43.139998999999996
aF42.490002000000004
aF41.849998
aF40.279999
aF42.470001
aF42.91
aF42.77
aF43.330002
aF42.950001
aF41.07
aF42.919998
aF43.209998999999996
aF43.560001
aF43.32
aF43.240002000000004
aF43.490002000000004
aF43.209998999999996
aF44.02
aF43.959998999999996
aF44.209998999999996
aF45.029999
aF44.779999
aF45.459998999999996
aF45.610001000000004
aF46.130001
aF45.75
aF45.959998999999996
aF46.709998999999996
aF47.290001000000004
aF47.34
aF47.349998
aF47.259997999999996
aF47.48
aF46.700001
aF47.189999
aF47.580002
aF47.889998999999996
aF47.5
aF48.400002
aF49.43
aF49.650002
aF49.630001
aF49.41
aF50.110001000000004
aF50.790001000000004
aF51.18
aF51.59
aF51.77
aF51.41
asVAAPL
p13
(lp14
F176.820007
aF176.669998
aF175.029999
aF176.940002
aF179.979996
aF181.720001
aF179.970001
aF178.440002
aF178.649994
aF178.020004
aF175.300003
aF175.240005
aF171.270004
aF168.850006
aF164.940002
aF172.770004
aF168.33999599999999
aF166.479996
aF167.779999
aF166.679993
aF168.389999
aF171.610001
aF172.800003
aF168.380005
aF170.050003
aF173.25
aF172.440002
aF174.139999
aF174.729996
aF175.820007
aF178.240005
aF177.83999599999999
aF172.800003
aF165.720001
aF165.240005
aF162.940002
aF163.649994
aF164.220001
aF162.320007
aF165.259995
aF169.100006
aF176.570007
aF176.889999
aF183.830002
aF185.16000400000001
aF186.050003
aF187.360001
aF190.03999299999998
aF188.58999599999999
aF188.149994
aF186.440002
aF188.179993
aF186.990005
aF186.309998
aF187.630005
aF187.16000400000001
aF188.360001
aF188.149994
aF188.580002
aF187.899994
aF187.5
aF186.869995
aF190.240005
aF191.830002
aF193.309998
aF193.979996
aF193.46000700000002
aF191.699997
aF191.229996
aF192.279999
aF190.699997
aF190.800003
aF188.83999599999999
aF188.740005
aF185.690002
aF186.5
aF185.46000700000002
aF184.919998
aF182.169998
aF184.429993
aF184.16000400000001
aF185.5
aF185.110001
aF187.179993
aF183.919998
aF185.399994
aF187.970001
aF190.580002
aF190.350006
aF187.880005
aF191.029999
aF191.330002
aF190.91000400000001
aF191.449997
aF190.399994
aF191.880005
aF191.440002
aF191.610001
aF193.0
aF194.820007
aF194.21000700000002
aF190.979996
aF189.91000400000001
aF190.28999299999998
aF201.5
aF207.389999
aF207.990005
aF209.070007
aF207.110001
aF207.25
aF208.880005
aF207.529999
aF208.869995
aF209.75
aF210.24000499999997
aF213.32000699999998
aF217.580002
aF215.460007
aF215.039993
aF215.05000299999998
aF215.49000499999997
aF216.16000400000001
aF217.940002
aF219.69999700000002
aF222.979996
aF225.02999900000003
aF227.63000499999998
aF228.36000099999998
aF226.86999500000002
aF223.100006
aF221.30000299999998
aF218.330002
aF223.850006
aF221.07000699999998
aF226.41000400000001
aF223.83999599999999
aF217.88000499999998
aF218.24000499999997
aF218.36999500000002
aF220.02999900000003
aF217.66000400000001
aF220.789993
aF222.190002
aF220.419998
aF224.94999700000002
aF225.74000499999997
aF227.25999500000003
aF229.27999900000003
aF232.07000699999998
aF227.99000499999997
aF224.289993
aF223.770004
aF226.86999500000002
aF216.36000099999998
aF214.44999700000002
aF222.11000099999998
aF217.36000099999998
aF222.149994
aF221.190002
aF216.020004
aF219.309998
aF220.649994
aF222.729996
aF215.08999599999999
aF219.80000299999998
aF216.30000299999998
aF212.24000499999997
aF213.30000299999998
aF218.86000099999998
aF222.22000099999997
aF207.479996
aF201.58999599999999
aF203.770004
aF209.94999700000002
aF208.490005
aF204.470001
aF194.169998
aF192.229996
aF186.800003
aF191.41000400000001
aF193.529999
aF185.860001
aF176.979996
aF176.779999
aF172.28999299999998
aF174.619995
aF174.240005
aF180.940002
aF179.550003
aF178.580002
aF184.820007
aF176.690002
aF174.720001
aF168.490005
aF169.600006
aF168.630005
aF169.100006
aF170.949997
aF165.479996
aF163.940002
aF166.070007
aF160.889999
aF156.830002
aF150.729996
aF146.830002
aF157.169998
aF156.149994
aF156.229996
aF157.740005
aF157.919998
aF142.190002
aF148.259995
aF147.929993
aF150.75
aF153.309998
aF153.800003
aF152.28999299999998
aF150.0
aF153.070007
aF154.940002
aF155.860001
aF156.820007
aF153.300003
aF153.919998
aF152.699997
aF157.759995
aF156.300003
aF154.679993
aF165.25
aF166.440002
aF166.520004
aF171.25
aF174.179993
aF174.240005
aF170.940002
aF170.41000400000001
aF169.429993
aF170.889999
aF170.179993
aF170.800003
aF170.419998
aF170.929993
aF172.029999
aF171.059998
aF172.970001
aF174.229996
aF174.330002
aF174.869995
aF173.149994
aF174.970001
asVV
p15
(lp16
F121.879997
aF121.059998
aF121.849998
aF122.220001
aF124.510002
aF124.239998
aF123.199997
aF122.58000200000001
aF123.410004
aF124.529999
aF123.209999
aF124.910004
aF123.220001
aF119.989998
aF117.0
aF120.639999
aF117.400002
aF116.989998
aF119.620003
aF118.389999
aF119.199997
aF119.809998
aF121.190002
aF117.699997
aF118.790001
aF120.720001
aF119.779999
aF121.07
aF120.75
aF121.879997
aF123.800003
aF124.480003
aF123.959999
aF124.199997
aF124.459999
aF121.269997
aF121.209999
aF127.08000200000001
aF126.010002
aF126.879997
aF127.510002
aF126.379997
aF127.18
aF128.16000400000001
aF129.259995
aF129.899994
aF130.83999599999999
aF131.0
aF131.820007
aF131.21000700000002
aF131.100006
aF130.889999
aF129.929993
aF129.929993
aF130.66000400000001
aF130.71000700000002
aF131.880005
aF131.889999
aF131.279999
aF129.690002
aF130.639999
aF130.720001
aF130.850006
aF133.070007
aF133.559998
aF136.279999
aF133.83999599999999
aF134.740005
aF133.91000400000001
aF134.860001
aF134.399994
aF135.0
aF135.100006
aF136.199997
aF135.110001
aF135.5
aF134.529999
aF135.330002
aF130.929993
aF132.550003
aF131.020004
aF132.740005
aF132.449997
aF132.5
aF131.449997
aF133.28999299999998
aF134.08999599999999
aF135.520004
aF136.690002
aF138.149994
aF139.899994
aF139.419998
aF138.46000700000002
aF139.639999
aF140.899994
aF140.130005
aF140.990005
aF140.029999
aF140.029999
aF142.639999
aF142.5
aF140.71000700000002
aF136.479996
aF136.740005
aF138.25
aF138.919998
aF139.820007
aF139.71000700000002
aF140.279999
aF140.679993
aF140.009995
aF139.729996
aF140.21000700000002
aF140.759995
aF139.919998
aF140.649994
aF141.330002
aF140.940002
aF140.03999299999998
aF141.139999
aF142.100006
aF144.199997
aF145.399994
aF145.199997
aF147.029999
aF146.740005
aF146.889999
aF147.800003
aF142.669998
aF144.5
aF143.199997
aF144.080002
aF145.490005
aF146.570007
aF147.630005
aF147.83999599999999
aF146.179993
aF147.630005
aF147.419998
aF149.240005
aF150.050003
aF149.110001
aF149.580002
aF149.270004
aF150.020004
aF150.08999599999999
aF150.78999299999998
aF149.669998
aF149.369995
aF146.759995
aF145.360001
aF141.889999
aF142.309998
aF135.520004
aF133.729996
aF140.059998
aF137.229996
aF141.740005
aF142.449997
aF139.28999299999998
aF140.080002
aF140.639999
aF139.119995
aF134.259995
aF140.520004
aF137.740005
aF134.330002
aF132.759995
aF137.850006
aF140.830002
aF139.779999
aF139.800003
aF140.78999299999998
aF144.779999
aF145.229996
aF143.929993
aF139.720001
aF139.720001
aF139.490005
aF141.83999599999999
aF140.179993
aF134.759995
aF133.369995
aF134.419998
aF132.869995
aF135.940002
aF135.91000400000001
aF141.380005
aF139.100006
aF141.71000700000002
aF145.0
aF138.639999
aF141.050003
aF137.110001
aF137.880005
aF136.809998
aF137.800003
aF137.53999299999998
aF135.08999599999999
aF131.399994
aF132.66000400000001
aF131.259995
aF128.759995
aF124.260002
aF121.730003
aF130.229996
aF132.009995
aF130.940002
aF131.940002
aF132.919998
aF128.130005
aF133.649994
aF136.059998
aF136.800003
aF138.41000400000001
aF138.669998
aF138.059998
aF137.100006
aF137.33999599999999
aF137.33999599999999
aF137.279999
aF138.5
aF138.050003
aF137.009995
aF137.699997
aF138.669998
aF135.990005
aF135.0
aF137.600006
aF135.009995
aF140.149994
aF141.5
aF142.529999
aF141.490005
aF140.169998
aF140.380005
aF140.800003
aF141.990005
aF143.490005
aF143.16000400000001
aF144.91000400000001
aF144.440002
aF144.729996
aF144.0
aF145.869995
aF146.059998
aF147.03999299999998
aF147.220001
aF148.119995
aF149.470001
asVCAT
p17
(lp18
F151.119995
aF153.75
aF151.509995
aF153.58999599999999
aF158.25
aF154.5
aF153.690002
aF152.53999299999998
aF154.570007
aF156.46000700000002
aF152.149994
aF154.059998
aF155.800003
aF146.899994
aF144.28999299999998
aF149.190002
aF146.990005
aF145.16000400000001
aF147.380005
aF143.889999
aF145.059998
aF145.179993
aF148.130005
aF142.990005
aF143.080002
aF148.08999599999999
aF146.78999299999998
aF150.139999
aF150.229996
aF152.139999
aF153.309998
aF155.949997
aF155.699997
aF153.25
aF153.990005
aF144.440002
aF145.190002
aF146.309998
aF144.720001
aF144.360001
aF144.419998
aF143.860001
aF143.779999
aF146.369995
aF149.820007
aF149.929993
aF152.610001
aF153.970001
aF154.860001
aF155.279999
aF152.58999599999999
aF153.800003
aF153.690002
aF155.71000700000002
aF158.919998
aF156.199997
aF157.740005
aF157.699997
aF155.850006
aF153.619995
aF155.46000700000002
aF151.91000400000001
aF153.520004
aF152.5
aF153.009995
aF156.509995
aF156.28999299999998
aF155.320007
aF156.300003
aF157.490005
aF154.71000700000002
aF153.139999
aF150.020004
aF148.679993
aF143.300003
aF143.130005
aF139.529999
aF139.940002
aF136.580002
aF135.53999299999998
aF134.610001
aF136.029999
aF135.669998
aF136.28999299999998
aF133.830002
aF135.809998
aF135.41000400000001
aF140.970001
aF141.25
aF136.759995
aF139.419998
aF140.75
aF138.080002
aF138.949997
aF141.119995
aF139.419998
aF136.820007
aF136.279999
aF137.970001
aF140.479996
aF142.580002
aF142.559998
aF139.75
aF143.800003
aF138.53999299999998
aF138.009995
aF138.509995
aF139.479996
aF142.380005
aF139.71000700000002
aF138.520004
aF135.919998
aF135.020004
aF134.919998
aF132.020004
aF136.259995
aF139.33999599999999
aF138.669998
aF139.990005
aF139.630005
aF136.78999299999998
aF138.21000700000002
aF142.03999299999998
aF142.0
aF141.860001
aF139.059998
aF138.850006
aF138.240005
aF140.58999599999999
aF141.570007
aF141.320007
aF142.050003
aF142.029999
aF144.279999
aF145.53999299999998
aF144.899994
aF146.220001
aF149.070007
aF152.759995
aF156.0
aF156.380005
aF154.0
aF154.08999599999999
aF153.169998
aF152.470001
aF152.490005
aF152.279999
aF154.820007
aF158.220001
aF156.75
aF153.309998
aF153.350006
aF149.46000700000002
aF143.720001
aF140.970001
aF142.070007
aF141.800003
aF143.71000700000002
aF141.33999599999999
aF135.800003
aF131.320007
aF128.71000700000002
aF118.980003
aF112.339996
aF115.629997
aF115.050003
aF113.980003
aF117.459999
aF121.32
aF124.699997
aF125.790001
aF126.410004
aF129.330002
aF135.100006
aF131.389999
aF126.910004
aF125.0
aF125.959999
aF125.099998
aF129.419998
aF129.96000700000002
aF125.980003
aF122.269997
aF123.870003
aF122.32
aF124.800003
aF124.599998
aF130.770004
aF130.229996
aF135.669998
aF138.949997
aF129.320007
aF128.369995
aF123.550003
aF123.389999
aF123.239998
aF125.370003
aF125.900002
aF126.769997
aF124.470001
aF124.269997
aF122.33000200000001
aF121.550003
aF120.07
aF116.949997
aF124.760002
aF126.66999799999999
aF125.610001
aF127.07
aF126.379997
aF121.510002
aF128.149994
aF128.229996
aF129.770004
aF130.270004
aF132.96000700000002
aF132.100006
aF131.800003
aF130.690002
aF131.66000400000001
aF134.53999299999998
aF136.600006
aF132.240005
aF131.820007
aF132.729996
aF136.860001
aF124.370003
aF126.529999
aF130.110001
aF133.16000400000001
aF130.91000400000001
aF130.880005
aF132.0
aF130.53999299999998
aF128.779999
aF128.600006
aF128.929993
aF132.669998
aF133.100006
aF132.619995
aF136.199997
aF135.800003
aF140.309998
aF138.880005
aF138.679993
aF141.41000400000001
aF137.979996
aF139.580002
aF137.33999599999999
aF137.470001
asVWBA
p19
(lp20
F70.550003
aF69.790001
aF69.5
aF68.970001
aF70.599998
aF70.150002
aF69.860001
aF68.550003
aF67.379997
aF67.57
aF66.620003
aF66.050003
aF66.269997
aF65.83000200000001
aF65.43
aF67.470001
aF65.959999
aF67.589996
aF65.470001
aF63.099998
aF63.169998
aF65.510002
aF64.650002
aF63.470001
aF62.849998
aF63.759997999999996
aF64.110001
aF64.040001
aF63.82
aF66.220001
aF65.970001
aF66.260002
aF65.279999
aF63.919998
aF64.599998
aF65.0
aF65.949997
aF66.739998
aF67.110001
aF66.449997
aF65.41999799999999
aF63.650002
aF62.23
aF63.810001
aF62.299999
aF62.360001000000004
aF62.939999
aF63.810001
aF64.089996
aF65.099998
aF64.610001
aF65.739998
aF65.989998
aF64.339996
aF64.5
aF64.230003
aF63.91
aF63.41
aF63.529999
aF62.700001
aF63.540001000000004
aF62.389998999999996
aF62.860001000000004
aF63.299999
aF62.889998999999996
aF63.150002
aF63.599998
aF63.400002
aF64.059998
aF63.700001
aF63.91
aF64.870003
aF65.800003
aF64.150002
aF64.610001
aF68.0
aF67.790001
aF67.610001
aF67.239998
aF66.57
aF66.260002
aF59.700001
aF60.02
aF61.130001
aF60.759997999999996
aF62.380001
aF63.299999
aF63.73
aF63.200001
aF63.66
aF63.880001
aF65.16999799999999
aF65.160004
aF65.629997
aF66.160004
aF64.93
aF64.980003
aF65.339996
aF65.510002
aF66.699997
aF67.540001
aF68.639999
aF69.160004
aF67.620003
aF66.440002
aF66.980003
aF67.220001
aF67.41999799999999
aF67.050003
aF66.489998
aF66.16999799999999
aF66.489998
aF66.480003
aF68.660004
aF68.730003
aF69.620003
aF69.989998
aF69.989998
aF70.25
aF69.639999
aF69.279999
aF69.209999
aF69.440002
aF69.279999
aF68.660004
aF67.800003
aF68.559998
aF67.620003
aF68.239998
aF68.029999
aF68.190002
aF68.800003
aF68.739998
aF70.379997
aF70.480003
aF70.279999
aF70.449997
aF70.879997
aF71.279999
aF72.889999
aF73.0
aF72.199997
aF72.209999
aF72.959999
aF73.809998
aF72.900002
aF72.459999
aF73.489998
aF73.800003
aF73.339996
aF72.510002
aF74.150002
aF73.559998
aF72.309998
aF70.900002
aF73.5
aF74.720001
aF76.279999
aF76.980003
aF76.58000200000001
aF77.349998
aF77.650002
aF77.260002
aF74.199997
aF75.739998
aF76.230003
aF76.82
aF78.800003
aF79.769997
aF79.900002
aF79.300003
aF79.970001
aF80.599998
aF81.910004
aF82.440002
aF82.389999
aF81.809998
aF81.91999799999999
aF81.519997
aF82.290001
aF82.519997
aF81.91999799999999
aF79.790001
aF79.760002
aF80.809998
aF81.699997
aF83.519997
aF84.639999
aF84.849998
aF84.66999799999999
aF85.690002
aF82.82
aF82.940002
aF81.190002
aF81.160004
aF81.809998
aF82.440002
aF82.32
aF78.739998
aF76.220001
aF75.480003
aF73.290001
aF69.610001
aF67.260002
aF65.260002
aF67.720001
aF68.360001
aF68.050003
aF68.33000200000001
aF68.040001
aF67.33000200000001
aF69.57
aF69.970001
aF71.370003
aF72.230003
aF72.480003
aF71.709999
aF70.650002
aF71.790001
aF72.0
aF71.989998
aF72.43
aF71.589996
aF71.709999
aF71.32
aF71.889999
aF71.58000200000001
aF71.5
aF71.610001
aF72.260002
aF71.879997
aF71.459999
aF71.309998
aF71.470001
aF71.199997
aF70.120003
aF70.470001
aF71.559998
aF72.43
aF72.110001
aF73.43
aF74.43
aF71.800003
aF70.470001
aF70.43
aF71.309998
aF71.480003
aF71.370003
aF71.190002
aF66.610001
asVVZ
p21
(lp22
F48.709998999999996
aF48.889998999999996
aF48.84
aF49.009997999999996
aF49.009997999999996
aF48.799999
aF48.650002
aF48.450001
aF48.290001000000004
aF48.560001
aF48.310001
aF47.689999
aF47.279999
aF46.880001
aF46.290001000000004
aF47.07
aF47.310001
aF48.0
aF47.82
aF47.16
aF47.5
aF47.93
aF48.240002000000004
aF47.48
aF46.919998
aF48.27
aF47.580002
aF47.740002000000004
aF47.66
aF48.389998999999996
aF48.849998
aF48.619999
aF48.43
aF47.900002
aF48.66
aF49.669998
aF50.099998
aF49.759997999999996
aF51.57
aF49.349998
aF48.82
aF47.75
aF47.84
aF48.189999
aF47.73
aF47.02
aF46.380001
aF47.200001
aF48.619999
aF48.490002000000004
aF47.790001000000004
aF47.860001000000004
aF47.849998
aF47.740002000000004
aF48.43
aF48.810001
aF48.59
aF48.639998999999996
aF48.52
aF48.200001
aF48.599998
aF47.669998
aF47.810001
aF47.82
aF47.970001
aF48.41
aF49.009997999999996
aF49.18
aF49.299999
aF48.810001
aF47.400002
aF47.82
aF48.060001
aF47.459998999999996
aF48.5
aF48.09
aF48.630001
aF49.759997999999996
aF49.599998
aF49.299999
aF49.310001
aF50.860001000000004
aF50.310001
aF50.419998
aF50.700001
aF51.279999
aF51.48
aF50.740002000000004
aF51.34
aF51.34
aF51.240002000000004
aF51.41
aF51.59
aF51.43
aF51.139998999999996
aF50.75
aF50.619999
aF50.75
aF51.509997999999996
aF50.91
aF51.18
aF52.009997999999996
aF52.490002000000004
aF51.639998999999996
aF51.73
aF51.98
aF52.27
aF52.48
aF52.459998999999996
aF52.700001
aF53.009997999999996
aF52.470001
aF52.220001
aF52.869999
aF53.240002000000004
aF54.27
aF54.790001000000004
aF54.650002
aF54.91
aF54.139998999999996
aF54.279999
aF54.779999
aF54.849998
aF54.650002
aF54.57
aF54.75
aF54.369999
aF53.189999
aF53.82
aF54.290001000000004
aF54.0
aF54.119999
aF54.720001
aF54.970001
aF54.939999
aF54.549999
aF54.700001
aF54.389998999999996
aF53.5
aF53.950001
aF54.419998
aF53.540001000000004
aF53.049999
aF53.139998999999996
aF53.59
aF53.389998999999996
aF53.84
aF54.419998
aF54.290001000000004
aF55.02
aF54.939999
aF55.02
aF54.990002000000004
aF54.330002
aF53.330002
aF53.73
aF53.599998
aF53.700001
aF53.959998999999996
aF54.650002
aF54.900002
aF54.98
aF57.209998999999996
aF57.419998
aF56.43
aF55.509997999999996
aF56.48
aF58.18
aF57.09
aF56.049999
aF56.630001
aF57.209998999999996
aF57.209998999999996
aF57.650002
aF58.27
aF58.459998999999996
aF58.720001
aF58.66
aF58.939999
aF59.080002
aF60.209998999999996
aF60.619999
aF59.459998999999996
aF59.16
aF58.639998999999996
aF59.169998
aF60.650002
aF60.060001
aF59.450001
aF60.299999
aF58.16
aF58.09
aF58.080002
aF57.68
aF58.27
aF58.849998
aF57.25
aF57.09
aF57.080002
aF55.950001
aF55.650002
aF55.860001000000004
aF55.07
aF54.919998
aF53.049999
aF54.439999
aF55.150002
aF55.27
aF56.220001
aF56.02
aF56.220001
aF56.360001000000004
aF56.720001
aF58.380001
aF57.049999
aF57.599998
aF58.02
aF58.029999
aF58.099998
aF57.080002
aF56.830002
aF57.09
aF56.990002000000004
aF57.759997999999996
aF57.07
aF56.400002
aF55.07
aF53.279999
aF54.0
aF55.060001
aF54.549999
aF54.040001000000004
aF54.139998999999996
aF53.790001000000004
aF53.57
aF53.950001
aF54.049999
aF54.419998
aF54.48
aF54.029999
aF55.16
aF55.439999
aF55.759997999999996
aF56.150002
aF56.919998
aF56.779999
aF56.639998999999996
aF56.720001
aF56.919998
aF56.959998999999996
asVHD
p23
(lp24
F181.740005
aF181.639999
aF178.580002
aF177.940002
aF182.16000400000001
aF179.71000700000002
aF178.350006
aF177.41000400000001
aF178.070007
aF178.96000700000002
aF177.100006
aF178.16000400000001
aF178.020004
aF175.28999299999998
aF171.800003
aF176.380005
aF174.679993
aF174.759995
aF178.240005
aF172.899994
aF173.759995
aF177.440002
aF179.130005
aF174.449997
aF172.509995
aF173.490005
aF172.860001
aF173.360001
aF172.800003
aF174.429993
aF174.91000400000001
aF179.850006
aF177.080002
aF177.009995
aF177.66000400000001
aF176.259995
aF177.389999
aF185.720001
aF186.46000700000002
aF184.800003
aF184.630005
aF185.91000400000001
aF183.190002
aF185.029999
aF183.559998
aF185.03999299999998
aF186.360001
aF187.16000400000001
aF190.309998
aF191.080002
aF187.979996
aF186.380005
aF185.330002
aF187.419998
aF189.78999299999998
aF186.869995
aF186.669998
aF187.149994
aF186.850006
aF185.0
aF187.08999599999999
aF186.550003
aF187.350006
aF191.360001
aF191.940002
aF193.58999599999999
aF196.169998
aF198.330002
aF199.639999
aF201.309998
aF200.309998
aF199.669998
aF200.53999299999998
aF200.690002
aF199.21000700000002
aF199.080002
aF200.309998
aF197.41000400000001
aF196.380005
aF196.360001
aF195.020004
aF195.21000700000002
aF195.100006
aF194.020004
aF193.619995
aF194.41000400000001
aF194.479996
aF196.080002
aF197.610001
aF196.949997
aF197.949997
aF198.690002
aF198.880005
aF201.100006
aF200.970001
aF202.630005
aF202.449997
aF202.229996
aF201.990005
aF201.0
aF199.399994
aF197.139999
aF197.279999
aF197.520004
aF196.300003
aF195.66000400000001
aF195.639999
aF195.690002
aF197.050003
aF198.020004
aF198.080002
aF196.300003
aF194.139999
aF193.100006
aF193.990005
aF195.389999
aF195.559998
aF197.929993
aF200.229996
aF198.970001
aF200.16000400000001
aF201.300003
aF201.979996
aF201.970001
aF201.679993
aF199.259995
aF200.770004
aF205.080002
aF204.149994
aF205.889999
aF206.229996
aF210.690002
aF213.850006
aF211.979996
aF209.449997
aF209.070007
aF208.399994
aF211.020004
aF211.67999300000002
aF211.059998
aF212.38999900000002
aF207.990005
aF207.46000700000002
aF207.520004
aF206.83999599999999
aF207.149994
aF207.600006
aF204.75
aF203.740005
aF198.850006
aF196.380005
aF198.41000400000001
aF195.75
aF193.699997
aF189.740005
aF192.470001
aF191.169998
aF193.580002
aF185.169998
aF180.440002
aF179.850006
aF178.75
aF178.529999
aF176.970001
aF179.070007
aF172.229996
aF173.199997
aF176.240005
aF175.880005
aF180.46000700000002
aF179.929993
aF182.190002
aF182.009995
aF187.229996
aF188.0
aF185.990005
aF179.429993
aF179.0
aF179.899994
aF177.360001
aF177.020004
aF173.58999599999999
aF169.050003
aF169.300003
aF168.850006
aF169.820007
aF173.220001
aF177.429993
aF175.66000400000001
aF180.320007
aF181.740005
aF175.300003
aF175.96000700000002
aF172.78999299999998
aF171.690002
aF172.21000700000002
aF174.21000700000002
aF173.869995
aF172.28999299999998
aF167.970001
aF170.03999299999998
aF167.559998
aF164.16000400000001
aF160.479996
aF158.139999
aF168.279999
aF170.320007
aF170.220001
aF171.820007
aF172.41000400000001
aF168.610001
aF173.619995
aF177.03999299999998
aF177.889999
aF179.729996
aF179.059998
aF179.41000400000001
aF178.809998
aF176.470001
aF177.03999299999998
aF174.869995
aF179.580002
aF177.110001
aF176.889999
aF177.28999299999998
aF180.399994
aF179.830002
aF179.690002
aF182.179993
aF183.529999
aF184.369995
aF186.429993
aF186.389999
aF184.720001
aF184.070007
aF184.53999299999998
aF182.919998
aF185.520004
aF188.41000400000001
aF187.71000700000002
aF192.389999
aF192.330002
aF191.850006
aF191.820007
aF192.389999
aF189.979996
aF188.300003
aF183.669998
aF185.139999
aF185.169998
asVIBM
p25
(lp26
F156.949997
aF155.720001
aF158.320007
aF156.21000700000002
aF159.309998
aF160.259995
aF159.320007
aF158.119995
aF159.610001
aF160.259995
aF157.350006
aF156.199997
aF156.690002
aF152.08999599999999
aF148.889999
aF153.369995
aF151.91000400000001
aF152.520004
aF153.429993
aF150.070007
aF149.850006
aF154.119995
aF154.029999
aF150.570007
aF152.690002
aF155.389999
aF155.360001
aF158.070007
aF156.71000700000002
aF157.889999
aF160.91000400000001
aF148.78999299999998
aF147.699997
aF144.899994
aF145.860001
aF145.559998
aF145.940002
aF146.720001
aF146.479996
aF144.96000700000002
aF145.0
aF142.449997
aF141.990005
aF143.91000400000001
aF143.220001
aF143.0
aF142.610001
aF144.240005
aF144.139999
aF144.300003
aF143.740005
aF144.630005
aF144.5
aF144.080002
aF145.490005
aF145.08999599999999
aF144.669998
aF144.070007
aF143.639999
aF141.220001
aF142.619995
aF141.309998
aF141.949997
aF143.03999299999998
aF143.699997
aF144.71000700000002
aF145.360001
aF146.139999
aF146.580002
aF146.869995
aF146.350006
aF145.199997
aF145.389999
aF144.479996
aF143.899994
aF142.630005
aF141.25
aF141.279999
aF138.78999299999998
aF139.080002
aF137.479996
aF140.03999299999998
aF139.699997
aF139.860001
aF139.570007
aF141.429993
aF142.479996
aF144.389999
aF144.71000700000002
aF144.940002
aF146.449997
aF145.899994
aF145.46000700000002
aF143.490005
aF144.520004
aF149.240005
aF146.350006
aF145.699997
aF146.380005
aF146.619995
aF146.71000700000002
aF145.149994
aF145.490005
aF144.929993
aF143.5
aF142.96000700000002
aF147.699997
aF146.029999
aF147.009995
aF146.889999
aF144.770004
aF144.479996
aF142.71000700000002
aF143.360001
aF143.91000400000001
aF145.33999599999999
aF146.059998
aF146.509995
aF145.970001
aF145.240005
aF145.369995
aF146.03999299999998
aF146.690002
aF146.58999599999999
aF147.53999299999998
aF145.929993
aF146.479996
aF145.679993
aF146.66000400000001
aF146.389999
aF145.449997
aF145.649994
aF146.490005
aF146.570007
aF148.949997
aF148.330002
aF147.940002
aF148.559998
aF149.059998
aF151.149994
aF151.350006
aF150.029999
aF148.91000400000001
aF151.610001
aF151.5
aF151.21000700000002
aF153.0
aF153.75
aF153.220001
aF151.309998
aF149.029999
aF148.389999
aF147.240005
aF142.690002
aF139.020004
aF140.850006
aF141.130005
aF145.119995
aF134.050003
aF130.550003
aF129.100006
aF130.020004
aF131.21000700000002
aF127.209999
aF126.449997
aF124.790001
aF119.639999
aF115.400002
aF115.43
aF116.83000200000001
aF115.66999799999999
aF120.059998
aF123.120003
aF124.839996
aF123.379997
aF123.540001
aF120.900002
aF120.839996
aF120.199997
aF121.440002
aF121.57
aF120.309998
aF117.199997
aF118.57
aF117.190002
aF119.559998
aF120.029999
aF123.0
aF121.480003
aF124.269997
aF125.309998
aF121.599998
aF123.910004
aF119.339996
aF121.129997
aF120.889999
aF121.160004
aF120.730003
aF119.900002
aF116.099998
aF116.650002
aF116.43
aF113.019997
aF110.940002
aF107.57
aF111.389999
aF113.779999
aF113.029999
aF113.66999799999999
aF115.209999
aF112.910004
aF117.32
aF118.150002
aF119.83000200000001
aF120.690002
aF121.790001
aF121.459999
aF120.389999
aF121.730003
aF121.620003
aF122.190002
aF123.82
aF122.519997
aF132.889999
aF132.529999
aF133.970001
aF134.270004
aF134.330002
aF134.380005
aF134.419998
aF134.100006
aF135.190002
aF135.550003
aF136.320007
aF133.190002
aF133.71000700000002
aF133.990005
aF136.050003
aF137.520004
aF136.479996
aF138.029999
aF138.699997
aF138.0
aF137.83999599999999
aF139.25
aF139.46000700000002
aF139.720001
aF139.169998
aF138.130005
aF139.199997
asVPG
p27
(lp28
F80.290001
aF80.019997
aF79.160004
aF79.970001
aF80.290001
aF79.860001
aF79.720001
aF79.0
aF78.66999799999999
aF78.970001
aF78.660004
aF78.309998
aF77.040001
aF76.410004
aF75.910004
aF76.410004
aF77.790001
aF78.839996
aF79.279999
aF77.400002
aF78.459999
aF79.050003
aF78.800003
aF78.43
aF78.160004
aF78.370003
aF78.269997
aF77.790001
aF78.370003
aF78.610001
aF78.43
aF78.199997
aF74.949997
aF73.800003
aF73.0
aF72.5
aF72.300003
aF72.75
aF72.809998
aF72.339996
aF71.959999
aF70.940002
aF71.360001
aF72.43
aF71.980003
aF71.440002
aF72.370003
aF73.150002
aF73.370003
aF73.279999
aF72.949997
aF73.529999
aF73.959999
aF73.449997
aF74.059998
aF74.029999
aF74.18
aF73.769997
aF74.309998
aF74.050003
aF74.889999
aF73.16999799999999
aF73.449997
aF74.18
aF73.970001
aF74.349998
aF75.760002
aF77.18
aF77.529999
aF77.239998
aF76.470001
aF75.989998
aF77.379997
aF75.839996
aF76.33000200000001
aF75.849998
aF76.440002
aF77.43
aF77.790001
aF78.0
aF77.690002
aF78.050003
aF78.059998
aF78.129997
aF77.900002
aF79.209999
aF79.309998
aF77.860001
aF79.82
aF79.160004
aF78.889999
aF79.309998
aF79.529999
aF80.029999
aF79.720001
aF78.730003
aF78.68
aF78.510002
aF78.989998
aF79.470001
aF80.089996
aF80.58000200000001
aF80.199997
aF80.879997
aF80.650002
aF82.0
aF82.33000200000001
aF82.519997
aF82.639999
aF82.349998
aF81.400002
aF81.43
aF81.519997
aF81.309998
aF82.300003
aF83.690002
aF83.690002
aF83.639999
aF83.900002
aF83.389999
aF83.239998
aF83.360001
aF83.440002
aF83.480003
aF83.489998
aF83.410004
aF82.949997
aF82.699997
aF83.290001
aF82.650002
aF81.910004
aF82.379997
aF82.010002
aF83.110001
aF83.449997
aF83.610001
aF84.25
aF84.0
aF84.0
aF85.360001
aF85.82
aF84.269997
aF83.120003
aF83.260002
aF82.860001
aF83.230003
aF83.66999799999999
aF84.360001
aF83.029999
aF81.91999799999999
aF82.150002
aF82.400002
aF82.199997
aF81.440002
aF78.870003
aF79.059998
aF80.129997
aF81.010002
aF81.860001
aF80.239998
aF87.300003
aF86.599998
aF87.160004
aF89.459999
aF89.0
aF87.860001
aF88.239998
aF89.190002
aF88.68
aF89.589996
aF89.809998
aF91.199997
aF91.510002
aF91.290001
aF91.360001
aF92.410004
aF92.699997
aF93.470001
aF93.489998
aF93.83000200000001
aF93.82
aF93.290001
aF92.099998
aF91.410004
aF91.540001
aF91.940002
aF92.720001
aF93.010002
aF92.82
aF94.510002
aF93.32
aF93.309998
aF93.550003
aF92.449997
aF93.029999
aF93.910004
aF94.029999
aF96.489998
aF96.639999
aF92.769997
aF92.489998
aF91.760002
aF90.980003
aF90.970001
aF87.360001
aF90.089996
aF92.019997
aF91.18
aF91.91999799999999
aF91.279999
aF90.639999
aF92.489998
aF92.120003
aF92.459999
aF90.949997
aF91.16999799999999
aF91.769997
aF91.150002
aF92.010002
aF91.370003
aF90.639999
aF91.41999799999999
aF90.440002
aF94.839996
aF94.300003
aF93.599998
aF93.519997
aF93.540001
aF94.519997
aF96.470001
aF97.470001
aF98.029999
aF97.440002
aF97.91999799999999
aF97.139999
aF97.709999
aF98.269997
aF99.260002
aF99.239998
aF98.459999
aF98.480003
aF99.989998
aF99.279999
aF99.779999
aF100.25
aF99.57
aF99.83000200000001
aF98.910004
aF98.550003
aF98.440002
asVDIS
p29
(lp30
F103.410004
aF104.940002
aF103.589996
aF104.029999
aF104.730003
aF105.16999799999999
aF103.730003
aF103.900002
aF103.239998
aF102.870003
aF101.480003
aF101.349998
aF101.82
aF100.599998
aF98.540001
aF100.650002
aF99.360001
aF98.540001
aF100.440002
aF98.660004
aF99.41999799999999
aF100.949997
aF102.110001
aF100.349998
aF99.699997
aF101.370003
aF100.800003
aF100.389999
aF100.349998
aF100.239998
aF102.16999799999999
aF101.209999
aF100.889999
aF100.239998
aF100.150002
aF99.459999
aF101.150002
aF99.839996
aF99.230003
aF100.33000200000001
aF100.059998
aF99.620003
aF98.760002
aF101.150002
aF102.480003
aF101.790001
aF99.970001
aF101.68
aF102.07
aF102.440002
aF102.91999799999999
aF105.040001
aF104.339996
aF103.93
aF104.059998
aF104.07
aF102.889999
aF102.110001
aF102.199997
aF99.690002
aF99.980003
aF99.470001
aF99.360001
aF100.239998
aF99.940002
aF101.910004
aF102.470001
aF103.980003
aF104.349998
aF104.33000200000001
aF106.309998
aF108.75
aF108.849998
aF107.059998
aF106.099998
aF107.150002
aF105.889999
aF106.339996
aF104.449997
aF104.260002
aF103.959999
aF104.769997
aF104.809998
aF105.33000200000001
aF104.040001
aF105.339996
aF104.779999
aF106.019997
aF106.029999
aF108.040001
aF108.25
aF110.0
aF110.199997
aF110.300003
aF110.690002
aF112.129997
aF111.480003
aF111.089996
aF110.699997
aF111.18
aF113.510002
aF112.620003
aF112.629997
aF113.559998
aF112.970001
aF112.75
aF114.089996
aF115.940002
aF116.559998
aF113.980003
aF114.160004
aF112.68
aF112.120003
aF112.75
aF112.849998
aF112.480003
aF112.480003
aF111.989998
aF112.389999
aF111.940002
aF112.0
aF111.93
aF112.33000200000001
aF112.58000200000001
aF112.449997
aF111.91999799999999
aF112.019997
aF110.849998
aF109.870003
aF110.260002
aF110.970001
aF110.68
aF109.599998
aF109.459999
aF110.66999799999999
aF109.260002
aF109.360001
aF109.529999
aF109.790001
aF111.620003
aF110.400002
aF112.769997
aF113.629997
aF115.209999
aF116.040001
aF116.940002
aF116.239998
aF117.660004
aF116.910004
aF116.129997
aF114.779999
aF116.019997
aF116.889999
aF112.860001
aF111.150002
aF112.610001
aF113.440002
aF116.190002
aF117.129997
aF116.18
aF118.900002
aF118.269997
aF117.849998
aF111.610001
aF114.160004
aF113.190002
aF113.040001
aF114.760002
aF114.83000200000001
aF116.099998
aF115.18
aF115.449997
aF116.709999
aF117.050003
aF116.0
aF118.0
aF116.699997
aF116.849998
aF117.120003
aF117.110001
aF116.190002
aF115.41999799999999
aF111.870003
aF113.029999
aF112.08000200000001
aF112.550003
aF113.900002
aF116.099998
aF116.610001
aF115.489998
aF115.739998
aF112.870003
aF114.33000200000001
aF111.980003
aF111.860001
aF111.970001
aF112.209999
aF113.389999
aF112.199997
aF110.620003
aF109.449997
aF109.220001
aF107.0
aF104.220001
aF100.349998
aF105.83000200000001
aF106.519997
aF107.300003
aF109.650002
aF108.970001
aF106.33000200000001
aF109.610001
aF110.559998
aF111.41999799999999
aF112.66999799999999
aF112.800003
aF112.650002
aF112.41999799999999
aF111.760002
aF110.910004
aF111.010002
aF111.040001
aF110.599998
aF111.120003
aF110.550003
aF111.089996
aF110.809998
aF110.900002
aF110.129997
aF111.519997
aF111.300003
aF111.800003
aF112.660004
aF111.410004
aF110.949997
aF111.510002
aF109.440002
aF109.199997
aF110.199997
aF110.660004
aF112.589996
aF113.510002
aF113.68
aF114.290001
aF115.25
aF113.589996
aF113.5
aF112.779999
aF112.839996
aF114.010002
asVGS
p31
(lp32
F263.119995
aF266.929993
aF265.350006
aF266.339996
aF270.769989
aF273.380005
aF268.52999900000003
aF264.429993
aF266.609985
aF267.600006
aF262.52999900000003
aF263.190002
aF261.850006
aF252.600006
aF245.25999500000003
aF254.88000499999998
aF247.25999500000003
aF249.36999500000002
aF251.86000099999998
aF247.350006
aF250.580002
aF252.61999500000002
aF255.809998
aF249.97000099999997
aF252.190002
aF256.570007
aF252.940002
aF259.589996
aF255.919998
aF257.880005
aF253.63000499999998
aF254.0
aF254.169998
aF251.960007
aF246.669998
aF242.49000499999997
aF239.229996
aF240.08999599999999
aF239.80000299999998
aF238.330002
aF236.669998
aF234.05000299999998
aF233.41000400000001
aF234.940002
aF237.19999700000002
aF237.0
aF241.729996
aF243.440002
aF242.919998
aF243.91000400000001
aF241.559998
aF240.960007
aF239.100006
aF237.0
aF237.69999700000002
aF238.0
aF237.809998
aF236.100006
aF235.00999500000003
aF227.02999900000003
aF229.16000400000001
aF225.88000499999998
aF228.350006
aF229.88999900000002
aF228.33999599999999
aF232.229996
aF233.44999700000002
aF233.38999900000002
aF234.08999599999999
aF232.63000499999998
aF233.830002
aF233.649994
aF231.919998
aF231.38999900000002
aF228.32000699999998
aF227.82000699999998
aF226.979996
aF226.020004
aF221.539993
aF221.580002
aF220.17999300000002
aF223.419998
aF220.57000699999998
aF223.25999500000003
aF220.38000499999998
aF220.74000499999997
aF221.789993
aF227.99000499999997
aF226.850006
aF225.66000400000001
aF227.22000099999997
aF226.41000400000001
aF231.440002
aF231.020004
aF231.24000499999997
aF229.63000499999998
aF231.690002
aF233.75999500000003
aF235.88000499999998
aF236.690002
aF237.11000099999998
aF237.63999900000002
aF238.94999700000002
aF237.42999300000002
aF236.039993
aF233.99000499999997
aF234.08999599999999
aF235.92999300000002
aF237.830002
aF236.36999500000002
aF233.77999900000003
aF229.61000099999998
aF226.86000099999998
aF229.559998
aF229.25
aF233.0
aF233.38000499999998
aF235.77999900000003
aF238.649994
aF239.33999599999999
aF236.33999599999999
aF235.11000099999998
aF242.600006
aF242.36999500000002
aF241.399994
aF239.399994
aF237.809998
aF237.66000400000001
aF237.559998
aF234.520004
aF233.91000400000001
aF231.91000400000001
aF230.210007
aF228.149994
aF228.330002
aF229.24000499999997
aF227.88999900000002
aF228.88999900000002
aF235.580002
aF237.399994
aF235.33999599999999
aF232.899994
aF232.5
aF228.88000499999998
aF227.74000499999997
aF224.24000499999997
aF225.330002
aF226.07000699999998
aF227.77999900000003
aF227.479996
aF225.710007
aF225.350006
aF222.91000400000001
aF214.88999900000002
aF212.97000099999997
aF213.86999500000002
aF215.22000099999997
aF221.69999700000002
aF228.27999900000003
aF224.94999700000002
aF226.960007
aF221.600006
aF218.559998
aF209.179993
aF214.00999500000003
aF212.36000099999998
aF214.49000499999997
aF219.27999900000003
aF225.36999500000002
aF226.97000099999997
aF229.690002
aF228.72000099999997
aF228.19999700000002
aF231.27999900000003
aF231.649994
aF222.649994
aF206.050003
aF205.050003
aF202.490005
aF203.740005
aF202.119995
aF198.220001
aF191.33999599999999
aF192.600006
aF189.100006
aF194.33999599999999
aF193.649994
aF198.350006
aF194.850006
aF190.690002
aF191.630005
aF184.309998
aF184.08999599999999
aF179.669998
aF178.830002
aF176.800003
aF176.699997
aF175.919998
aF172.770004
aF168.009995
aF171.5
aF169.25
aF168.41000400000001
aF160.050003
aF156.350006
aF162.929993
aF165.41000400000001
aF163.029999
aF167.050003
aF172.029999
aF169.509995
aF175.050003
aF176.020004
aF175.369995
aF176.470001
aF176.0
aF176.929993
aF178.720001
aF179.91000400000001
aF197.080002
aF199.08999599999999
aF202.53999299999998
aF197.679993
aF196.899994
aF197.800003
aF200.740005
aF199.720001
aF200.5
aF202.479996
aF198.009995
aF196.53999299999998
aF197.720001
aF198.009995
aF196.619995
aF193.070007
aF191.669998
aF191.330002
aF194.490005
aF194.690002
aF192.529999
aF198.5
aF198.669998
aF198.600006
aF196.360001
aF196.0
aF198.649994
aF198.899994
aF198.100006
aF196.699997
aF198.199997
asVINTC
p33
(lp34
F49.75
aF50.709998999999996
aF51.32
aF50.740002000000004
aF52.189999
aF51.52
aF51.779999
aF51.860001000000004
aF50.880001
aF51.169998
aF50.830002
aF51.549999
aF51.560001
aF50.830002
aF49.360001000000004
aF52.48
aF51.189999
aF49.599998
aF52.080002
aF48.919998
aF49.75
aF49.990002000000004
aF50.380001
aF48.790001000000004
aF49.549999
aF51.27
aF51.099998
aF52.720001
aF51.860001000000004
aF52.400002
aF53.540001000000004
aF53.610001000000004
aF52.220001
aF51.529999
aF51.099998
aF51.450001
aF51.380001
aF53.049999
aF52.73
aF51.619999
aF53.330002
aF52.310001
aF52.279999
aF52.779999
aF53.330002
aF53.630001
aF54.34
aF54.98
aF54.669998
aF54.900002
aF53.919998
aF54.639998999999996
aF54.810001
aF53.5
aF54.32
aF54.450001
aF55.209998999999996
aF54.75
aF55.439999
aF55.32
aF55.68
aF55.200001
aF57.080002
aF56.830002
aF56.529999
aF57.029999
aF55.880001
aF55.049999
aF54.52
aF54.82
aF55.029999
aF55.540001000000004
aF55.110001000000004
aF53.220001
aF52.93
aF53.459998999999996
aF52.189999
aF52.5
aF50.709998999999996
aF49.669998
aF48.759997999999996
aF49.25
aF49.709998999999996
aF50.200001
aF49.470001
aF50.75
aF51.369999
aF51.860001000000004
aF52.16
aF51.200001
aF52.349998
aF52.220001
aF52.009997999999996
aF51.75
aF51.720001
aF51.98
aF51.91
aF52.310001
aF52.18
aF52.43
aF52.16
aF47.68
aF47.689999
aF48.099998
aF48.810001
aF49.48
aF49.630001
aF49.299999
aF49.700001
aF49.959998999999996
aF50.139998999999996
aF48.849998
aF48.450001
aF48.119999
aF47.459998999999996
aF47.169998
aF47.099998
aF46.5
aF47.619999
aF47.049999
aF46.98
aF47.66
aF48.349998
aF48.57
aF48.75
aF48.240002000000004
aF48.43
aF47.959998999999996
aF47.720001
aF47.259997999999996
aF46.450001
aF46.299999
aF44.93
aF44.93
aF45.57
aF45.540001000000004
aF45.419998
aF46.099998
aF46.150002
aF47.200001
aF46.66
aF46.91
aF45.91
aF45.700001
aF45.880001
aF47.290001000000004
aF46.450001
aF48.099998
aF48.759997999999996
aF48.130001
aF47.029999
aF47.029999
aF46.549999
aF44.799999
aF44.23
aF44.880001
aF44.529999
aF45.939999
aF45.889998999999996
aF44.970001
aF44.0
aF45.009997999999996
aF44.5
aF42.419998
aF44.310001
aF45.689999
aF45.400002
aF47.759997999999996
aF46.880001
aF48.220001
aF47.110001000000004
aF47.970001
aF47.25
aF48.720001
aF48.990002000000004
aF48.110001000000004
aF46.650002
aF47.389998999999996
aF47.09
aF48.110001000000004
aF48.830002
aF48.0
aF47.389998999999996
aF47.029999
aF46.540001000000004
aF47.450001
aF48.07
aF48.860001000000004
aF47.700001
aF49.310001
aF50.130001
aF47.75
aF48.369999
aF46.240002000000004
aF47.209998999999996
aF47.380001
aF47.830002
aF48.290001000000004
aF47.860001000000004
aF47.080002
aF47.740002000000004
aF45.57
aF45.540001000000004
aF44.84
aF43.59
aF46.189999
aF46.360001000000004
aF46.75
aF46.93
aF47.080002
aF44.490002000000004
aF47.220001
aF47.439999
aF47.740002000000004
aF48.009997999999996
aF48.560001
aF48.93
aF48.349998
aF48.599998
aF48.130001
aF48.470001
aF49.189999
aF48.27
aF47.939999
aF49.759997999999996
aF47.040001000000004
aF46.709998999999996
aF46.540001000000004
aF47.540001000000004
aF47.119999
aF48.73
aF49.220001
aF50.009997999999996
aF49.900002
aF49.23
aF48.84
aF48.77
aF50.009997999999996
aF50.470001
aF50.810001
aF51.66
aF51.400002
aF51.389998999999996
aF51.41
aF52.490002000000004
aF53.099998
aF53.23
aF53.240002000000004
aF52.959998999999996
aF53.299999
asVWMT
p35
(lp36
F89.980003
aF89.059998
aF87.739998
aF87.91999799999999
aF88.720001
aF88.07
aF88.300003
aF87.66999799999999
aF87.510002
aF89.16999799999999
aF87.449997
aF87.949997
aF88.18
aF87.139999
aF85.41999799999999
aF87.5
aF86.050003
aF87.769997
aF88.970001
aF85.550003
aF86.800003
aF87.220001
aF87.809998
aF86.690002
aF86.279999
aF86.449997
aF85.910004
aF85.43
aF86.019997
aF86.839996
aF87.900002
aF87.57
aF87.889999
aF86.980003
aF86.099998
aF86.529999
aF87.16999799999999
aF87.940002
aF87.290001
aF88.459999
aF87.410004
aF86.339996
aF86.230003
aF87.529999
aF85.470001
aF85.739998
aF83.059998
aF82.690002
aF83.379997
aF84.389999
aF84.519997
aF86.129997
aF84.489998
aF83.639999
aF84.510002
aF83.370003
aF83.010002
aF82.849998
aF82.459999
aF82.400002
aF84.120003
aF82.540001
aF82.989998
aF85.41999799999999
aF84.620003
aF84.559998
aF84.949997
aF84.360001
aF84.300003
aF84.099998
aF84.089996
aF83.790001
aF83.699997
aF83.0
aF83.610001
aF83.610001
aF84.209999
aF84.82
aF86.470001
aF85.980003
aF86.889999
aF85.860001
aF85.650002
aF84.0
aF84.440002
aF84.57
aF84.510002
aF85.93
aF87.209999
aF86.529999
aF86.519997
aF87.699997
aF87.639999
aF88.190002
aF88.07
aF87.720001
aF88.059998
aF87.629997
aF87.959999
aF87.900002
aF88.230003
aF88.129997
aF88.879997
aF89.230003
aF88.239998
aF88.760002
aF89.599998
aF89.66999799999999
aF89.769997
aF90.050003
aF89.010002
aF90.18
aF89.639999
aF90.849998
aF90.220001
aF98.639999
aF97.849998
aF96.0
aF96.08000200000001
aF95.66999799999999
aF95.18
aF94.949997
aF94.540001
aF96.07
aF95.639999
aF96.099998
aF95.860001
aF95.360001
aF96.620003
aF96.449997
aF95.83000200000001
aF96.900002
aF96.639999
aF95.970001
aF95.120003
aF94.589996
aF94.82
aF95.43
aF95.239998
aF95.75
aF95.900002
aF94.91999799999999
aF95.099998
aF94.589996
aF94.129997
aF93.910004
aF94.400002
aF95.150002
aF94.07
aF94.209999
aF93.309998
aF94.690002
aF97.08000200000001
aF95.760002
aF93.91999799999999
aF94.809998
aF93.82
aF95.809998
aF96.559998
aF96.16999799999999
aF97.150002
aF97.139999
aF97.800003
aF97.559998
aF99.18
aF98.940002
aF99.800003
aF102.41999799999999
aF100.279999
aF100.58000200000001
aF101.339996
aF102.910004
aF103.33000200000001
aF104.32
aF104.879997
aF105.559998
aF103.870003
aF102.940002
aF101.529999
aF99.540001
aF97.690002
aF96.779999
aF94.160004
aF94.16999799999999
aF95.099998
aF95.150002
aF95.040001
aF97.459999
aF97.290001
aF97.650002
aF98.75
aF95.809998
aF94.769997
aF93.190002
aF93.940002
aF93.849998
aF93.110001
aF92.959999
aF91.849998
aF90.769997
aF91.08000200000001
aF90.550003
aF87.279999
aF87.129997
aF85.82
aF90.410004
aF91.589996
aF92.129997
aF93.150002
aF93.339996
aF92.860001
aF93.440002
aF94.540001
aF95.199997
aF94.889999
aF94.959999
aF94.839996
aF94.949997
aF96.25
aF96.349998
aF96.739998
aF97.730003
aF97.489998
aF98.709999
aF98.360001
aF96.940002
aF97.059998
aF96.709999
aF94.800003
aF95.83000200000001
aF93.860001
aF94.769997
aF95.599998
aF95.639999
aF96.730003
aF95.58000200000001
aF96.199997
aF96.970001
aF97.940002
aF98.519997
aF99.989998
aF102.199997
aF99.879997
aF99.389999
aF99.550003
aF99.120003
aF98.690002
aF98.110001
aF98.989998
aF97.93
asVMSFT
p37
(lp38
F93.639999
aF93.32
aF93.860001
aF94.43
aF96.540001
aF96.769997
aF94.410004
aF93.849998
aF94.18
aF94.599998
aF92.889999
aF93.129997
aF92.480003
aF89.790001
aF87.18
aF93.779999
aF89.470001
aF89.389999
aF91.269997
aF88.519997
aF89.709999
aF92.33000200000001
aF92.379997
aF90.230003
aF90.769997
aF92.879997
aF91.860001
aF93.58000200000001
aF93.08000200000001
aF94.16999799999999
aF96.07
aF96.440002
aF96.110001
aF95.0
aF95.349998
aF93.120003
aF92.309998
aF94.260002
aF95.82
aF93.519997
aF95.0
aF93.510002
aF94.07
aF95.160004
aF96.220001
aF95.809998
aF96.940002
aF97.910004
aF97.699997
aF98.029999
aF97.32
aF97.150002
aF96.18
aF96.360001
aF97.599998
aF97.5
aF98.660004
aF98.309998
aF98.360001
aF98.010002
aF98.949997
aF98.839996
aF100.790001
aF101.66999799999999
aF102.190002
aF102.489998
aF100.879997
aF101.629997
aF101.050003
aF101.309998
aF100.849998
aF101.41999799999999
aF100.129997
aF100.860001
aF100.860001
aF101.870003
aF101.139999
aF100.410004
aF98.389999
aF99.08000200000001
aF97.540001
aF98.629997
aF98.610001
aF100.010002
aF99.050003
aF99.760002
aF101.160004
aF101.849998
aF102.120003
aF101.980003
aF104.190002
aF105.43
aF104.910004
aF105.949997
aF105.120003
aF104.400002
aF106.269997
aF107.970001
aF107.660004
aF110.83000200000001
aF109.620003
aF107.68
aF105.370003
aF106.08000200000001
aF106.279999
aF107.57
aF108.040001
aF108.129997
aF108.879997
aF109.489998
aF109.66999799999999
aF109.0
aF108.209999
aF109.559998
aF107.660004
aF107.639999
aF107.58000200000001
aF106.870003
aF105.980003
aF107.059998
aF107.559998
aF108.400002
aF109.599998
aF110.260002
aF112.019997
aF111.949997
aF112.33000200000001
aF111.709999
aF108.489998
aF108.739998
aF108.209999
aF109.379997
aF111.239998
aF111.709999
aF112.910004
aF113.370003
aF112.139999
aF113.209999
aF111.699997
aF113.57
aF114.260002
aF114.66999799999999
aF114.449997
aF113.980003
aF114.410004
aF114.370003
aF115.610001
aF115.150002
aF115.16999799999999
aF112.790001
aF112.129997
aF110.849998
aF112.260002
aF106.160004
aF105.910004
aF109.57
aF107.599998
aF111.0
aF110.709999
aF108.5
aF108.660004
aF109.629997
aF108.099998
aF102.32
aF108.300003
aF106.959999
aF103.849998
aF103.730003
aF106.809998
aF105.91999799999999
aF106.160004
aF107.510002
aF107.720001
aF111.959999
aF111.75
aF109.57
aF106.870003
aF106.940002
aF104.970001
aF107.279999
aF108.290001
aF104.620003
aF101.709999
aF103.110001
aF103.07
aF106.470001
aF107.139999
aF111.120003
aF110.190002
aF110.889999
aF112.089996
aF108.519997
aF109.190002
aF104.82
aF107.589996
aF108.589996
aF109.08000200000001
aF109.449997
aF106.029999
aF102.889999
aF103.970001
aF103.690002
aF101.510002
aF98.230003
aF94.129997
aF100.559998
aF101.18
aF100.389999
aF101.57
aF101.120003
aF97.400002
aF101.93
aF102.059998
aF102.800003
aF104.269997
aF103.599998
aF102.800003
aF102.050003
aF105.010002
aF105.379997
aF106.120003
aF107.709999
aF105.68
aF106.709999
aF106.199997
aF107.16999799999999
aF105.08000200000001
aF102.940002
aF106.379997
aF104.43
aF102.779999
aF105.739998
aF107.220001
aF106.029999
aF105.269997
aF105.66999799999999
aF105.25
aF106.889999
aF106.809998
aF106.900002
aF108.220001
aF108.16999799999999
aF107.150002
aF109.410004
aF110.970001
aF111.589996
aF112.360001
aF112.16999799999999
aF112.029999
aF112.529999
asVMRK
p39
(lp40
F54.400002
aF54.299999
aF54.470001
aF54.759997999999996
aF55.139998999999996
aF55.360001000000004
aF55.369999
aF54.799999
aF55.25
aF55.669998
aF54.630001
aF54.639998999999996
aF54.689999
aF54.119999
aF53.41
aF54.040001000000004
aF53.75
aF55.09
aF54.470001
aF53.27
aF54.09
aF54.540001000000004
aF54.529999
aF53.360001000000004
aF56.16
aF56.490002000000004
aF56.200001
aF56.740002000000004
aF57.169998
aF58.650002
aF59.27
aF58.919998
aF58.639998999999996
aF58.830002
aF60.25
aF60.09
aF59.630001
aF59.41
aF59.470001
aF58.869999
aF57.98
aF57.299999
aF57.529999
aF57.75
aF57.380001
aF56.759997999999996
aF57.950001
aF58.060001
aF59.689999
aF59.68
aF59.200001
aF59.75
aF59.07
aF59.139998999999996
aF58.57
aF58.450001
aF59.169998
aF59.130001
aF59.09
aF58.400002
aF59.720001
aF59.529999
aF60.560001
aF62.02
aF61.389998999999996
aF61.93
aF61.990002000000004
aF62.580002
aF62.330002
aF62.439999
aF62.59
aF61.560001
aF62.029999
aF60.990002000000004
aF61.029999
aF61.279999
aF61.18
aF61.470001
aF61.080002
aF60.720001
aF59.880001
aF60.299999
aF60.700001
aF60.459998999999996
aF60.709998999999996
aF61.639998999999996
aF62.200001
aF62.02
aF62.299999
aF61.900002
aF62.66
aF62.889998999999996
aF62.59
aF62.529999
aF62.939999
aF62.509997999999996
aF62.52
aF62.689999
aF63.419998
aF64.489998
aF64.010002
aF63.490002000000004
aF64.809998
aF65.870003
aF65.489998
aF65.220001
aF65.93
aF66.220001
aF66.58000200000001
aF66.690002
aF66.0
aF66.07
aF66.720001
aF66.459999
aF67.370003
aF68.849998
aF69.059998
aF70.16999799999999
aF69.16999799999999
aF69.040001
aF68.970001
aF69.040001
aF68.989998
aF68.629997
aF68.809998
aF68.540001
aF68.589996
aF67.949997
aF68.620003
aF69.379997
aF69.66999799999999
aF69.559998
aF69.08000200000001
aF69.860001
aF70.83000200000001
aF69.980003
aF70.41999799999999
aF70.41999799999999
aF69.980003
aF70.779999
aF71.099998
aF70.779999
aF70.650002
aF70.33000200000001
aF70.720001
aF70.940002
aF71.529999
aF71.75
aF71.370003
aF71.220001
aF71.029999
aF71.459999
aF72.339996
aF70.449997
aF68.370003
aF69.809998
aF69.459999
aF71.220001
aF71.82
aF72.209999
aF72.349998
aF72.57
aF72.099998
aF70.540001
aF69.959999
aF70.400002
aF71.449997
aF72.870003
aF73.610001
aF73.120003
aF72.269997
aF73.120003
aF73.309998
aF75.08000200000001
aF75.480003
aF74.860001
aF74.690002
aF74.610001
aF74.089996
aF74.839996
aF76.059998
aF76.349998
aF74.779999
aF74.790001
aF74.66999799999999
aF75.440002
aF76.339996
aF77.230003
aF77.910004
aF79.339996
aF79.220001
aF78.209999
aF78.370003
aF76.720001
aF77.41999799999999
aF77.110001
aF78.010002
aF79.010002
aF76.480003
aF75.230003
aF74.33000200000001
aF73.769997
aF73.489998
aF72.900002
aF71.150002
aF74.0
aF75.379997
aF75.370003
aF76.410004
aF75.589996
aF74.040001
aF76.269997
aF75.43
aF75.989998
aF75.410004
aF74.480003
aF74.900002
aF73.370003
aF74.5
aF74.610001
aF75.599998
aF75.870003
aF75.83000200000001
aF75.440002
aF73.16999799999999
aF72.949997
aF72.91999799999999
aF73.230003
aF73.370003
aF74.43
aF76.449997
aF76.870003
aF77.150002
aF77.389999
aF76.82
aF77.519997
aF76.709999
aF78.519997
aF79.019997
aF78.940002
aF79.809998
aF79.239998
aF79.43
aF79.83000200000001
aF80.769997
aF80.379997
aF80.739998
aF80.620003
aF81.290001
aF81.650002
asVUNH
p41
(lp42
F228.38000499999998
aF226.17999300000002
aF227.270004
aF224.729996
aF225.42999300000002
aF222.770004
aF226.940002
aF225.38000499999998
aF229.479996
aF227.86000099999998
aF225.05000299999998
aF226.77999900000003
aF222.82000699999998
aF215.210007
aF212.55000299999998
aF219.07000699999998
aF217.960007
aF218.5
aF214.0
aF217.19999700000002
aF224.580002
aF228.789993
aF229.07000699999998
aF223.960007
aF222.729996
aF226.789993
aF221.899994
aF224.24000499999997
aF224.27999900000003
aF230.32000699999998
aF238.55000299999998
aF236.399994
aF235.75999500000003
aF235.059998
aF234.33999599999999
aF234.22000099999997
aF234.899994
aF237.02999900000003
aF240.17999300000002
aF236.399994
aF236.850006
aF233.460007
aF234.149994
aF235.899994
aF233.77999900000003
aF232.02999900000003
aF229.210007
aF233.710007
aF238.27999900000003
aF242.899994
aF239.5
aF241.72000099999997
aF242.960007
aF244.63999900000002
aF247.899994
aF245.17999300000002
aF244.25999500000003
aF242.729996
aF244.94999700000002
aF242.169998
aF244.940002
aF241.50999500000003
aF243.350006
aF244.63000499999998
aF244.42999300000002
aF248.649994
aF248.979996
aF250.67999300000002
aF253.77999900000003
aF253.580002
aF252.86999500000002
aF255.330002
aF255.979996
aF254.86999500000002
aF253.020004
aF252.809998
aF251.88999900000002
aF254.36999500000002
aF250.710007
aF249.770004
aF248.169998
aF244.899994
aF245.33999599999999
aF247.479996
aF246.979996
aF250.5
aF250.75999500000003
aF253.669998
aF255.539993
aF254.58999599999999
aF256.049988
aF258.700012
aF256.980011
aF250.289993
aF255.419998
aF252.92999300000002
aF252.69999700000002
aF252.74000499999997
aF253.75999500000003
aF254.86000099999998
aF257.0
aF255.94999700000002
aF253.83999599999999
aF253.22000099999997
aF253.36999500000002
aF256.079987
aF257.22000099999997
aF256.76001
aF257.649994
aF258.809998
aF261.589996
aF260.359985
aF260.910004
aF263.480011
aF260.609985
aF263.100006
aF262.329987
aF262.399994
aF261.690002
aF260.73999
aF261.420013
aF264.27999900000003
aF267.079987
aF268.51001
aF269.0
aF268.390015
aF268.459991
aF268.51001
aF267.640015
aF269.649994
aF268.27999900000003
aF259.730011
aF261.040009
aF262.670013
aF265.48999
aF265.309998
aF263.869995
aF263.290009
aF265.329987
aF266.390015
aF266.670013
aF267.359985
aF263.51001
aF262.910004
aF264.649994
aF266.040009
aF269.100006
aF270.630005
aF270.899994
aF268.320007
aF269.200012
aF269.01001
aF270.109985
aF263.079987
aF257.119995
aF259.609985
aF260.25
aF272.570007
aF267.299988
aF266.809998
aF265.299988
aF262.190002
aF264.859985
aF256.320007
aF264.23999
aF258.179993
aF256.519989
aF258.27999900000003
aF261.350006
aF260.929993
aF261.01001
aF261.01001
aF263.540009
aF274.630005
aF276.649994
aF276.549988
aF272.380005
aF269.22000099999997
aF264.959991
aF264.940002
aF271.109985
aF266.049988
aF261.5
aF260.549988
aF261.619995
aF266.160004
aF271.149994
aF280.950012
aF282.549988
aF281.359985
aF286.329987
aF278.549988
aF276.850006
aF269.179993
aF266.52999900000003
aF267.22000099999997
aF270.640015
aF272.149994
aF265.019989
aF258.070007
aF252.97000099999997
aF250.309998
aF242.440002
aF238.33999599999999
aF232.940002
aF243.350006
aF245.97000099999997
aF246.24000499999997
aF249.11999500000002
aF243.49000499999997
aF236.850006
aF239.61999500000002
aF240.080002
aF243.289993
aF243.63999900000002
aF244.86999500000002
aF247.669998
aF248.059998
aF256.869995
aF261.459991
aF259.769989
aF265.5
aF265.690002
aF267.019989
aF266.130005
aF268.049988
aF266.769989
aF267.339996
aF270.369995
aF270.200012
aF268.72000099999997
aF268.209991
aF266.309998
aF269.5
aF269.0
aF261.899994
aF257.140015
aF263.5
aF263.799988
aF265.329987
aF271.130005
aF270.410004
aF269.51001
aF266.399994
aF267.109985
aF264.600006
aF262.980011
aF250.080002
aF242.22000099999997
aF246.149994
asVPFE
p43
(lp44
F36.119999
aF35.880001
aF35.93
aF36.5
aF36.77
aF36.610001000000004
aF36.75
aF36.349998
aF36.580002
aF36.779999
aF36.330002
aF36.330002
aF36.27
aF35.599998
aF34.490002000000004
aF35.040001000000004
aF35.009997999999996
aF35.299999
aF35.490002000000004
aF35.049999
aF35.68
aF36.130001
aF35.73
aF35.169998
aF35.459998999999996
aF35.950001
aF35.790001000000004
aF36.32
aF36.32
aF36.529999
aF36.330002
aF36.490002000000004
aF36.529999
aF36.630001
aF36.799999
aF37.060001
aF36.68
aF36.849998
aF37.0
aF36.610001000000004
aF35.400002
aF34.889998999999996
aF34.759997999999996
aF34.84
aF34.93
aF34.98
aF35.169998
aF35.040001000000004
aF35.5
aF35.860001000000004
aF35.689999
aF35.68
aF35.709998999999996
aF35.639998999999996
aF35.799999
aF35.720001
aF35.970001
aF35.889998999999996
aF35.68
aF35.700001
aF36.049999
aF35.93
aF36.25
aF36.450001
aF36.439999
aF36.380001
aF36.490002000000004
aF36.669998
aF36.299999
aF36.299999
aF36.220001
aF36.16
aF36.360001000000004
aF36.16
aF36.220001
aF36.459998999999996
aF36.299999
aF36.509997999999996
aF36.380001
aF36.380001
aF36.209998999999996
aF36.360001000000004
aF36.279999
aF36.330002
aF36.349998
aF36.869999
aF37.110001000000004
aF37.16
aF37.43
aF37.209998999999996
aF37.52
aF37.529999
aF37.380001
aF37.650002
aF37.66
aF37.360001000000004
aF37.330002
aF37.209998999999996
aF37.700001
aF37.990002000000004
aF38.16
aF38.41
aF38.59
aF39.93
aF40.27
aF39.650002
aF40.540001000000004
aF41.040001000000004
aF40.84
aF41.41
aF41.0
aF40.93
aF40.810001
aF40.709998999999996
aF41.16
aF41.419998
aF42.09
aF42.330002
aF42.16
aF42.07
aF42.200001
aF42.400002
aF41.580002
aF41.5
aF41.5
aF41.5
aF41.52
aF41.369999
aF41.849998
aF41.779999
aF42.200001
aF42.060001
aF42.310001
aF42.41
aF42.849998
aF42.959998999999996
aF43.009997999999996
aF43.509997999999996
aF43.259997999999996
aF43.75
aF44.060001
aF43.93
aF43.790001000000004
aF43.68
aF43.900002
aF44.07
aF44.27
aF44.220001
aF44.810001
aF44.700001
aF44.91
aF45.279999
aF45.470001
aF44.509997999999996
aF42.810001
aF43.779999
aF43.119999
aF43.93
aF44.57
aF44.0
aF44.5
aF44.369999
aF44.099998
aF42.48
aF43.41
aF42.599998
aF43.23
aF42.889998999999996
aF43.060001
aF43.669998
aF42.93
aF43.52
aF43.009997999999996
aF44.400002
aF43.849998
aF44.279999
aF44.110001000000004
aF43.52
aF42.91
aF43.209998999999996
aF43.509997999999996
aF44.18
aF43.529999
aF43.099998
aF43.139998999999996
aF43.34
aF44.07
aF44.900002
aF45.509997999999996
aF46.23
aF45.990002000000004
aF45.139998999999996
aF44.98
aF43.919998
aF44.400002
aF44.009997999999996
aF44.16
aF44.57
aF43.799999
aF43.110001000000004
aF42.400002
aF41.970001
aF41.950001
aF41.93
aF40.549999
aF42.189999
aF42.849998
aF42.959998999999996
aF43.650002
aF43.25
aF42.040001000000004
aF43.0
aF43.23
aF43.43
aF43.34
aF42.310001
aF42.880001
aF42.369999
aF42.73
aF42.110001000000004
aF42.470001
aF42.529999
aF42.27
aF42.16
aF40.950001
aF40.639998999999996
aF39.529999
aF40.77
aF41.580002
aF42.450001
aF42.880001
aF42.439999
aF42.110001000000004
aF42.330002
aF41.700001
aF42.23
aF41.68
aF41.869999
aF41.700001
aF41.970001
aF42.400002
aF42.599998
aF42.200001
aF42.139998999999996
aF42.959998999999996
aF43.080002
aF43.02
aF42.93
aF43.349998
aF43.360001000000004
asVUTX
p45
(lp46
F131.71000700000002
aF131.610001
aF130.929993
aF131.259995
aF134.070007
aF131.5
aF130.149994
aF129.580002
aF129.25
aF128.330002
aF127.199997
aF127.160004
aF127.0
aF124.07
aF122.309998
aF126.639999
aF125.279999
aF124.449997
aF125.82
aF123.480003
aF124.910004
aF125.769997
aF125.760002
aF122.760002
aF122.220001
aF122.959999
aF122.449997
aF123.25
aF122.709999
aF123.809998
aF124.529999
aF124.800003
aF123.849998
aF123.08000200000001
aF123.459999
aF122.099998
aF121.449997
aF122.82
aF122.459999
aF120.150002
aF118.959999
aF118.5
aF117.699997
aF119.510002
aF120.889999
aF121.790001
aF123.110001
aF124.099998
aF124.480003
aF124.980003
aF124.550003
aF124.779999
aF124.610001
aF125.190002
aF128.050003
aF127.870003
aF127.58000200000001
aF127.400002
aF127.029999
aF125.110001
aF126.199997
aF124.82
aF125.809998
aF126.290001
aF125.949997
aF126.82
aF127.58000200000001
aF127.610001
aF128.169998
aF127.849998
aF126.940002
aF126.940002
aF126.910004
aF127.489998
aF125.050003
aF125.360001
aF123.480003
aF124.870003
aF124.610001
aF125.639999
aF124.360001
aF124.599998
aF125.029999
aF125.029999
aF124.91999799999999
aF124.949997
aF125.400002
aF126.68
aF127.059998
aF124.879997
aF127.349998
aF129.509995
aF128.979996
aF130.71000700000002
aF131.690002
aF130.360001
aF130.259995
aF129.369995
aF134.240005
aF134.75
aF135.83999599999999
aF134.529999
aF133.100006
aF135.740005
aF134.899994
aF134.119995
aF133.889999
aF133.940002
aF134.490005
aF134.71000700000002
aF134.240005
aF133.100006
aF132.179993
aF132.419998
aF131.75
aF133.309998
aF134.440002
aF135.139999
aF135.979996
aF133.240005
aF132.619995
aF133.360001
aF135.360001
aF134.5
aF133.619995
aF132.58999599999999
aF131.699997
aF131.899994
aF132.779999
aF133.520004
aF132.009995
aF133.649994
aF133.610001
aF133.889999
aF135.520004
aF137.800003
aF137.759995
aF139.580002
aF140.5
aF141.850006
aF142.080002
aF140.33999599999999
aF139.71000700000002
aF139.559998
aF139.679993
aF139.809998
aF140.919998
aF141.449997
aF141.020004
aF140.389999
aF139.059998
aF139.58999599999999
aF135.880005
aF131.119995
aF129.369995
aF129.630005
aF130.330002
aF132.509995
aF130.070007
aF128.940002
aF128.679993
aF126.400002
aF130.020004
aF122.07
aF124.400002
aF123.230003
aF121.089996
aF122.620003
aF124.209999
aF127.58000200000001
aF127.43
aF127.25
aF127.940002
aF130.550003
aF131.33999599999999
aF130.71000700000002
aF128.300003
aF129.119995
aF128.889999
aF129.729996
aF130.130005
aF127.849998
aF126.0
aF125.709999
aF129.03999299999998
aF127.980003
aF122.68
aF122.730003
aF121.199997
aF121.839996
aF123.599998
aF120.870003
aF121.449997
aF119.449997
aF119.410004
aF118.93
aF119.660004
aF119.25
aF118.800003
aF115.309998
aF115.779999
aF113.800003
aF109.620003
aF106.18
aF102.059998
aF106.010002
aF105.760002
aF105.339996
aF106.480003
aF108.300003
aF103.480003
aF107.019997
aF106.970001
aF108.900002
aF109.32
aF110.410004
aF109.949997
aF110.849998
aF111.059998
aF110.870003
aF112.769997
aF113.900002
aF111.059998
aF117.040001
aF115.559998
aF115.809998
aF115.08000200000001
aF117.839996
aF119.120003
aF118.07
aF118.980003
aF119.139999
aF120.769997
aF121.360001
aF120.720001
aF122.489998
aF122.720001
aF123.980003
aF124.41999799999999
aF124.129997
aF127.760002
aF128.639999
aF128.429993
aF126.32
aF127.769997
aF128.270004
aF127.190002
aF126.900002
aF125.66999799999999
aF125.769997
asVXOM
p47
(lp48
F76.269997
aF76.18
aF74.260002
aF74.120003
aF74.559998
aF75.239998
aF74.529999
aF73.599998
aF74.41999799999999
aF75.120003
aF74.150002
aF73.989998
aF75.040001
aF73.5
aF72.889999
aF74.0
aF73.699997
aF72.809998
aF74.610001
aF73.220001
aF75.019997
aF74.870003
aF76.019997
aF74.870003
aF74.870003
aF77.07
aF77.43
aF77.220001
aF77.839996
aF78.540001
aF78.33000200000001
aF79.220001
aF79.41999799999999
aF79.0
aF79.57
aF78.349998
aF79.5
aF80.860001
aF77.790001
aF77.75
aF76.949997
aF76.800003
aF76.540001
aF76.900002
aF77.739998
aF78.089996
aF79.93
aF81.720001
aF81.279999
aF81.83000200000001
aF81.790001
aF82.019997
aF81.879997
aF81.300003
aF82.279999
aF81.639999
aF82.150002
aF80.269997
aF78.709999
aF78.41999799999999
aF81.5
aF81.239998
aF81.83000200000001
aF80.970001
aF80.68
aF82.059998
aF82.879997
aF83.599998
aF83.099998
aF82.41999799999999
aF81.510002
aF81.889999
aF80.660004
aF80.82
aF80.699997
aF80.449997
aF79.690002
aF81.379997
aF79.739998
aF80.639999
aF81.709999
aF81.970001
aF82.730003
aF81.760002
aF82.239998
aF82.309998
aF82.33000200000001
aF82.900002
aF83.660004
aF82.589996
aF82.690002
aF83.309998
aF82.489998
aF82.309998
aF82.220001
aF82.010002
aF81.400002
aF81.400002
aF83.010002
aF83.589996
aF84.239998
aF81.91999799999999
aF81.739998
aF81.510002
aF80.389999
aF79.910004
aF80.199997
aF80.18
aF81.269997
aF80.730003
aF80.32
aF79.41999799999999
aF78.559998
aF78.309998
aF76.940002
aF78.0
aF78.260002
aF78.809998
aF78.83000200000001
aF79.959999
aF79.08000200000001
aF79.620003
aF80.400002
aF80.279999
aF80.860001
aF80.510002
aF80.16999799999999
aF80.290001
aF81.360001
aF80.459999
aF81.83000200000001
aF81.709999
aF82.860001
aF83.129997
aF82.32
aF82.91999799999999
aF83.410004
aF83.629997
aF84.629997
aF84.82
aF85.16999799999999
aF86.599998
aF86.5
aF85.779999
aF85.769997
aF85.019997
aF85.809998
aF86.459999
aF86.150002
aF85.58000200000001
aF85.339996
aF86.129997
aF86.510002
aF84.519997
aF81.599998
aF81.379997
aF80.82
aF81.199997
aF81.5
aF81.849998
aF81.970001
aF81.150002
aF79.839996
aF77.620003
aF78.309998
aF77.529999
aF77.050003
aF78.779999
aF79.68
aF80.66999799999999
aF81.949997
aF81.639999
aF81.989998
aF83.029999
aF81.709999
aF80.870003
aF79.83000200000001
aF78.0
aF77.389999
aF78.190002
aF78.959999
aF79.220001
aF76.970001
aF77.559998
aF75.489998
aF76.980003
aF77.050003
aF78.449997
aF79.059998
aF79.5
aF81.220001
aF79.43
aF78.389999
aF77.639999
aF76.540001
aF76.68
aF76.019997
aF76.980003
aF75.58000200000001
aF74.040001
aF72.0
aF70.779999
aF68.629997
aF68.120003
aF65.510002
aF68.639999
aF68.940002
aF68.16999799999999
aF68.190002
aF69.690002
aF68.620003
aF71.150002
aF71.519997
aF72.040001
aF72.41999799999999
aF72.050003
aF71.720001
aF71.629997
aF71.66999799999999
aF71.639999
aF72.129997
aF72.989998
aF71.889999
aF71.300003
aF71.400002
aF71.720001
aF71.239998
aF71.510002
aF72.290001
aF73.279999
aF75.91999799999999
aF74.82
aF75.589996
aF75.260002
aF74.68
aF73.980003
aF74.099998
aF75.400002
aF76.25
aF76.269997
aF77.709999
aF78.230003
aF78.529999
aF77.82
aF78.41999799999999
aF78.5
aF78.660004
aF79.470001
aF79.029999
aF80.0
asVTRV
p49
(lp50
F139.580002
aF141.389999
aF138.880005
aF139.669998
aF142.300003
aF141.490005
aF140.690002
aF139.520004
aF140.470001
aF141.320007
aF140.020004
aF141.479996
aF141.100006
aF138.149994
aF134.899994
aF138.220001
aF136.75
aF138.78999299999998
aF138.860001
aF134.83999599999999
aF136.990005
aF138.630005
aF139.28999299999998
aF137.25
aF137.229996
aF137.860001
aF136.58999599999999
aF137.28999299999998
aF136.28999299999998
aF137.550003
aF137.33999599999999
aF136.470001
aF136.58999599999999
aF136.83999599999999
aF137.229996
aF132.880005
aF132.220001
aF132.949997
aF133.190002
aF131.600006
aF131.08999599999999
aF128.320007
aF127.309998
aF129.71000700000002
aF128.990005
aF128.66000400000001
aF129.75
aF130.880005
aF131.25
aF130.0
aF129.860001
aF130.149994
aF130.720001
aF129.850006
aF131.139999
aF131.419998
aF130.899994
aF130.649994
aF131.029999
aF128.21000700000002
aF130.169998
aF128.520004
aF129.28999299999998
aF129.720001
aF129.169998
aF128.770004
aF129.770004
aF131.320007
aF130.5
aF129.580002
aF129.720001
aF128.860001
aF129.369995
aF127.589996
aF128.16000400000001
aF124.989998
aF123.449997
aF124.410004
aF123.720001
aF122.620003
aF121.339996
aF122.449997
aF122.339996
aF122.389999
aF122.769997
aF122.599998
aF123.18
aF125.400002
aF125.870003
aF125.050003
aF126.019997
aF126.629997
aF128.190002
aF128.78999299999998
aF130.0
aF125.18
aF125.199997
aF124.239998
aF124.75
aF126.279999
aF129.490005
aF130.729996
aF131.100006
aF130.139999
aF128.96000700000002
aF128.330002
aF129.699997
aF130.0
aF129.940002
aF129.21000700000002
aF129.559998
aF128.869995
aF128.050003
aF127.540001
aF128.770004
aF130.33999599999999
aF130.419998
aF131.419998
aF131.71000700000002
aF129.41000400000001
aF129.520004
aF130.509995
aF131.889999
aF132.279999
aF132.66000400000001
aF131.649994
aF131.600006
aF132.130005
aF132.58999599999999
aF132.570007
aF130.08999599999999
aF127.599998
aF127.849998
aF126.889999
aF128.830002
aF130.009995
aF129.889999
aF131.369995
aF132.5
aF134.149994
aF134.440002
aF132.830002
aF131.28999299999998
aF129.5
aF129.119995
aF129.71000700000002
aF128.970001
aF129.509995
aF129.53999299999998
aF130.78999299999998
aF130.130005
aF131.66000400000001
aF131.58999599999999
aF128.169998
aF124.309998
aF123.650002
aF123.389999
aF124.75
aF126.440002
aF125.139999
aF126.07
aF124.07
aF123.800003
aF121.559998
aF121.239998
aF121.290001
aF122.32
aF125.870003
aF125.129997
aF125.199997
aF124.900002
aF126.529999
aF128.600006
aF130.279999
aF130.990005
aF131.029999
aF127.040001
aF126.809998
aF123.040001
aF125.589996
aF128.770004
aF130.520004
aF128.369995
aF127.760002
aF126.599998
aF130.33999599999999
aF129.610001
aF130.699997
aF130.630005
aF130.369995
aF130.110001
aF126.690002
aF125.410004
aF123.559998
aF123.0
aF120.970001
aF122.010002
aF121.5
aF120.550003
aF119.93
aF119.300003
aF119.160004
aF117.32
aF116.059998
aF112.629997
aF117.16999799999999
aF118.66999799999999
aF118.239998
aF119.75
aF117.370003
aF115.260002
aF118.68
aF118.300003
aF117.839996
aF118.68
aF120.269997
aF120.470001
aF120.58000200000001
aF121.82
aF122.300003
aF122.940002
aF124.010002
aF122.360001
aF123.019997
aF124.379997
aF124.980003
aF125.029999
aF124.82
aF125.879997
aF125.540001
aF126.489998
aF126.040001
aF126.18
aF125.550003
aF126.760002
aF125.790001
aF125.41999799999999
aF127.260002
aF128.03999299999998
aF126.93
aF128.740005
aF129.100006
aF129.740005
aF129.820007
aF131.020004
aF132.490005
aF133.270004
aF132.619995
aF132.91000400000001
aF133.029999
asVJPM
p51
(lp52
F115.059998
aF115.160004
aF114.730003
aF114.739998
aF118.040001
aF117.660004
aF116.25
aF114.949997
aF115.239998
aF115.440002
aF114.529999
aF114.639999
aF114.739998
aF109.949997
aF107.010002
aF110.309998
aF108.16999799999999
aF108.0
aF109.970001
aF107.849998
aF109.33000200000001
aF110.989998
aF111.879997
aF109.089996
aF110.400002
aF112.510002
aF110.620003
aF113.370003
aF110.300003
aF110.209999
aF110.209999
aF109.32
aF111.720001
aF111.470001
aF110.93
aF110.410004
aF109.989998
aF110.099998
aF109.400002
aF108.779999
aF108.779999
aF107.91999799999999
aF107.239998
aF108.43
aF109.370003
aF110.989998
aF113.410004
aF114.290001
aF113.860001
aF113.900002
aF113.029999
aF113.339996
aF112.959999
aF111.129997
aF112.150002
aF113.010002
aF112.489998
aF111.230003
aF110.660004
aF105.93
aF108.349998
aF107.010002
aF108.400002
aF108.449997
aF107.839996
aF110.360001
aF110.800003
aF111.110001
aF110.83000200000001
aF110.190002
aF109.970001
aF108.029999
aF107.900002
aF108.18
aF107.550003
aF107.540001
aF107.510002
aF105.75
aF104.790001
aF104.860001
aF103.239998
aF104.93
aF104.199997
aF105.08000200000001
aF103.610001
aF103.720001
aF104.059998
aF107.279999
aF106.620003
aF106.389999
aF106.849998
aF106.360001
aF110.58000200000001
aF110.5
aF111.529999
aF109.889999
aF111.279999
aF113.349998
aF114.150002
aF115.18
aF114.849998
aF116.029999
aF116.730003
aF114.949997
aF115.660004
aF116.150002
aF117.089996
aF117.120003
aF117.550003
aF117.790001
aF116.879997
aF115.730003
aF113.889999
aF114.650002
aF113.699997
aF114.769997
aF114.769997
aF114.620003
aF115.32
aF114.970001
aF114.730003
aF114.68
aF116.709999
aF116.139999
aF115.760002
aF115.190002
aF114.58000200000001
aF115.150002
aF114.589996
aF114.099998
aF114.32
aF113.709999
aF114.43
aF113.08000200000001
aF113.519997
aF113.5
aF113.839996
aF114.300003
aF117.620003
aF118.629997
aF117.849998
aF116.720001
aF116.389999
aF115.019997
aF114.519997
aF112.839996
aF113.5
aF113.970001
aF115.040001
aF115.269997
aF114.620003
aF115.32
aF114.519997
aF111.470001
aF108.129997
aF106.949997
aF106.339996
aF108.620003
aF109.83000200000001
aF108.089996
aF107.910004
aF106.360001
aF105.25
aF103.290001
aF104.860001
aF103.41999799999999
aF104.849998
aF106.699997
aF109.019997
aF108.980003
aF108.379997
aF109.089996
aF109.599998
aF111.480003
aF112.379997
aF111.290001
aF108.949997
aF109.589996
aF107.33000200000001
aF110.07
aF109.989998
aF110.83000200000001
aF108.449997
aF107.639999
aF106.650002
aF109.260002
aF109.720001
aF110.940002
aF110.059998
aF111.190002
aF112.239998
aF107.230003
aF105.190002
aF103.290001
aF101.360001
aF100.370003
aF101.019997
aF101.120003
aF100.290001
aF99.010002
aF98.540001
aF97.290001
aF96.449997
aF94.16999799999999
aF92.139999
aF95.959999
aF97.040001
aF96.83000200000001
aF97.620003
aF99.309998
aF97.110001
aF100.690002
aF100.760002
aF100.57
aF100.400002
aF100.389999
aF99.910004
aF100.940002
aF101.68
aF102.5
aF102.91999799999999
aF104.589996
aF102.940002
aF102.68
aF102.739998
aF103.389999
aF103.879997
aF104.16999799999999
aF104.410004
aF103.5
aF103.879997
aF104.25
aF103.790001
aF103.739998
aF102.379997
aF101.360001
aF100.879997
aF102.599998
aF103.089996
aF102.41999799999999
aF105.550003
aF105.18
aF105.690002
aF105.470001
aF105.0
aF106.099998
aF105.290001
aF105.160004
aF104.360001
aF104.43
asVNKE
p53
(lp54
F65.050003
aF65.239998
aF64.16999799999999
aF65.110001
aF66.300003
aF66.82
aF66.16999799999999
aF66.199997
aF66.389999
aF65.910004
aF65.709999
aF66.800003
aF66.349998
aF64.41999799999999
aF64.629997
aF65.900002
aF66.16999799999999
aF65.440002
aF66.440002
aF64.120003
aF66.699997
aF68.41999799999999
aF69.589996
aF67.550003
aF67.18
aF67.0
aF66.83000200000001
aF67.769997
aF67.25
aF67.059998
aF67.510002
aF66.199997
aF65.730003
aF66.089996
aF66.879997
aF66.970001
aF66.66999799999999
aF68.050003
aF69.559998
aF68.389999
aF68.099998
aF68.260002
aF66.900002
aF68.099998
aF69.339996
aF68.459999
aF67.949997
aF67.91999799999999
aF68.43
aF68.839996
aF69.5
aF71.339996
aF70.940002
aF71.32
aF71.379997
aF71.309998
aF71.339996
aF72.18
aF72.25
aF70.91999799999999
aF72.230003
aF71.800003
aF72.760002
aF73.83000200000001
aF74.050003
aF74.75
aF74.760002
aF74.900002
aF74.589996
aF74.290001
aF74.110001
aF74.699997
aF75.839996
aF75.610001
aF74.260002
aF74.720001
aF73.940002
aF73.43
aF72.349998
aF72.559998
aF71.349998
aF71.699997
aF79.68
aF78.349998
aF76.279999
aF76.550003
aF76.480003
aF77.279999
aF77.57
aF77.360001
aF77.370003
aF77.379997
aF77.75
aF77.470001
aF76.589996
aF76.949997
aF76.959999
aF76.589996
aF75.529999
aF77.160004
aF78.150002
aF76.889999
aF75.959999
aF76.910004
aF77.540001
aF78.650002
aF78.739998
aF79.510002
aF80.529999
aF80.5
aF81.260002
aF80.730003
aF80.150002
aF80.139999
aF79.57
aF80.050003
aF79.75
aF82.18
aF82.949997
aF82.639999
aF82.910004
aF82.449997
aF82.650002
aF82.58000200000001
aF82.790001
aF81.400002
aF82.199997
aF79.599998
aF79.91999799999999
aF80.400002
aF80.300003
aF82.099998
aF82.629997
aF83.0
aF83.470001
aF83.489998
aF83.260002
aF85.260002
aF84.43
aF85.370003
aF85.550003
aF84.269997
aF84.790001
aF83.699997
aF84.540001
aF84.720001
aF84.459999
aF82.769997
aF82.5
aF80.18
aF80.120003
aF80.230003
aF80.41999799999999
aF74.940002
aF74.510002
aF75.910004
aF74.989998
aF77.480003
aF76.480003
aF75.599998
aF74.209999
aF74.900002
aF73.349998
aF72.120003
aF73.099998
aF72.07
aF72.190002
aF74.510002
aF75.040001
aF76.790001
aF76.58000200000001
aF77.529999
aF76.57
aF77.970001
aF77.779999
aF76.360001
aF75.099998
aF75.199997
aF75.199997
aF74.33000200000001
aF74.739998
aF72.519997
aF71.120003
aF72.370003
aF71.489998
aF72.709999
aF72.089996
aF74.660004
aF74.339996
aF75.120003
aF77.940002
aF75.790001
aF75.540001
aF73.339996
aF72.510002
aF73.57
aF74.32
aF72.93
aF72.529999
aF69.900002
aF71.150002
aF68.970001
aF67.529999
aF72.370003
aF68.099998
aF73.010002
aF73.66999799999999
aF73.339996
aF74.139999
aF74.059998
aF72.75
aF74.650002
aF75.720001
aF76.730003
aF76.589996
aF76.41999799999999
aF76.040001
aF76.089996
aF77.879997
aF77.68
aF79.129997
aF80.449997
aF80.75
aF80.5
aF80.440002
aF80.610001
aF80.32
aF80.220001
aF81.279999
aF81.879997
aF81.510002
aF81.989998
aF82.860001
aF82.709999
aF82.389999
aF82.360001
aF83.68
aF84.709999
aF85.400002
aF84.68
aF85.379997
aF84.57
aF84.839996
aF83.949997
aF84.760002
aF85.16999799999999
aF85.800003
aF86.16999799999999
aF85.730003
aF87.160004
asVMCD
p55
(lp56
F151.029999
aF151.199997
aF152.380005
aF154.440002
aF157.240005
aF157.740005
aF158.220001
aF158.240005
aF161.610001
aF162.360001
aF159.009995
aF159.380005
aF158.66000400000001
aF157.03999299999998
aF154.979996
aF158.009995
aF157.479996
aF158.41000400000001
aF156.380005
aF157.720001
aF160.399994
aF161.729996
aF163.949997
aF161.25
aF161.229996
aF162.770004
aF163.33999599999999
aF161.619995
aF161.729996
aF161.630005
aF162.550003
aF161.809998
aF159.529999
aF158.770004
aF158.990005
aF157.320007
aF155.940002
aF158.899994
aF158.300003
aF167.440002
aF163.440002
aF160.679993
aF160.080002
aF165.029999
aF165.0
aF164.770004
aF164.240005
aF165.070007
aF165.389999
aF164.720001
aF163.059998
aF162.869995
aF161.309998
aF160.979996
aF161.479996
aF159.449997
aF161.619995
aF162.389999
aF163.21000700000002
aF160.619995
aF161.820007
aF160.009995
aF159.16000400000001
aF160.220001
aF159.479996
aF162.380005
aF169.479996
aF168.91000400000001
aF166.490005
aF166.729996
aF166.580002
aF167.050003
aF166.46000700000002
aF166.279999
aF164.970001
aF162.559998
aF160.529999
aF164.550003
aF159.809998
aF160.91000400000001
aF157.419998
aF156.320007
aF156.690002
aF156.869995
aF156.479996
aF157.320007
aF159.419998
aF159.940002
aF160.619995
aF158.619995
aF159.119995
aF158.509995
aF158.779999
aF159.75
aF157.929993
aF157.41000400000001
aF157.970001
aF158.75
aF157.940002
aF158.889999
aF156.139999
aF157.479996
aF158.639999
aF157.53999299999998
aF156.919998
aF155.41000400000001
aF156.21000700000002
aF156.720001
aF156.03999299999998
aF158.919998
aF159.300003
aF158.679993
aF158.139999
aF160.600006
aF159.880005
aF161.729996
aF161.149994
aF161.679993
aF161.03999299999998
aF160.550003
aF159.050003
aF159.380005
aF160.479996
aF161.639999
aF163.110001
aF162.800003
aF162.229996
aF161.720001
aF163.240005
aF163.740005
aF163.899994
aF165.070007
aF164.619995
aF164.740005
aF162.399994
aF160.83999599999999
aF158.139999
aF157.770004
aF159.179993
aF160.78999299999998
aF165.300003
aF163.309998
aF166.41000400000001
aF165.759995
aF166.529999
aF167.28999299999998
aF166.669998
aF165.179993
aF164.66000400000001
aF165.800003
aF166.570007
aF167.770004
aF169.830002
aF168.369995
aF162.970001
aF163.820007
aF163.669998
aF164.070007
aF166.770004
aF166.809998
aF167.490005
aF166.630005
aF177.149994
aF177.350006
aF175.309998
aF173.33999599999999
aF173.229996
aF178.490005
aF176.899994
aF174.880005
aF176.75
aF180.389999
aF182.71000700000002
aF184.25
aF185.479996
aF185.940002
aF184.369995
aF184.009995
aF183.850006
aF183.559998
aF187.58999599999999
aF186.720001
aF183.71000700000002
aF182.720001
aF181.929993
aF183.889999
aF184.630005
aF187.850006
aF189.259995
aF188.509995
aF185.369995
aF185.03999299999998
aF185.449997
aF182.96000700000002
aF184.649994
aF183.58999599999999
aF183.479996
aF186.429993
aF183.28999299999998
aF180.78999299999998
aF179.71000700000002
aF179.16000400000001
aF173.679993
aF174.149994
aF170.279999
aF174.029999
aF175.71000700000002
aF175.559998
aF177.570007
aF176.059998
aF174.899994
aF178.279999
aF180.220001
aF180.600006
aF180.28999299999998
aF181.550003
aF182.369995
aF181.220001
aF181.020004
aF179.350006
aF181.110001
aF182.570007
aF184.570007
aF186.08999599999999
aF187.369995
aF184.0
aF183.600006
aF182.169998
aF181.770004
aF178.779999
aF176.720001
aF177.550003
aF177.570007
aF176.179993
aF175.279999
aF174.75
aF174.259995
aF173.970001
aF174.149994
aF175.869995
aF179.970001
aF179.25
aF180.490005
aF182.809998
aF183.169998
aF182.610001
aF183.21000700000002
aF183.360001
aF183.83999599999999
aF185.050003
asVKO
p57
(lp58
F43.889998999999996
aF43.93
aF43.82
aF44.450001
aF44.82
aF44.529999
aF44.57
aF43.779999
aF43.669998
aF43.459998999999996
aF43.259997999999996
aF43.16
aF43.0
aF42.759997999999996
aF42.330002
aF42.689999
aF42.889998999999996
aF43.32
aF43.43
aF42.669998
aF43.380001
aF44.240002000000004
aF44.400002
aF43.919998
aF43.830002
aF43.990002000000004
aF43.990002000000004
aF44.029999
aF44.509997999999996
aF44.68
aF44.880001
aF44.509997999999996
aF44.310001
aF43.740002000000004
aF43.98
aF43.07
aF42.43
aF42.75
aF43.310001
aF43.209998999999996
aF42.59
aF42.060001
aF41.889998999999996
aF42.360001000000004
aF42.139998999999996
aF41.810001
aF41.779999
aF42.18
aF42.139998999999996
aF42.040001000000004
aF41.720001
aF41.549999
aF42.299999
aF42.18
aF42.41
aF42.25
aF42.400002
aF42.32
aF42.400002
aF42.68
aF43.130001
aF43.0
aF43.119999
aF43.490002000000004
aF43.110001000000004
aF43.459998999999996
aF43.439999
aF43.950001
aF44.130001
aF44.41
aF44.18
aF43.580002
aF44.119999
aF43.549999
aF43.599998
aF43.259997999999996
aF43.09
aF43.25
aF43.580002
aF43.330002
aF43.07
aF43.470001
aF43.860001000000004
aF43.75
aF43.990002000000004
aF44.66
aF44.639998999999996
aF44.400002
aF44.970001
aF44.790001000000004
aF44.669998
aF44.740002000000004
aF44.73
aF45.25
aF45.119999
aF45.110001000000004
aF45.279999
aF44.950001
aF45.259997999999996
aF46.09
aF46.240002000000004
aF46.209998999999996
aF46.23
aF46.630001
aF46.389998999999996
aF46.18
aF46.619999
aF46.650002
aF46.5
aF46.150002
aF46.349998
aF46.080002
aF45.830002
aF45.889998999999996
aF46.080002
aF46.220001
aF46.599998
aF46.73
aF46.220001
aF45.93
aF45.700001
aF45.630001
aF45.689999
aF45.369999
aF45.330002
aF44.950001
aF44.57
aF44.759997999999996
aF45.380001
aF45.77
aF45.720001
aF46.060001
aF46.02
aF46.240002000000004
aF45.830002
aF45.990002000000004
aF46.32
aF45.93
aF45.959998999999996
aF46.639998999999996
aF46.580002
aF46.07
aF45.68
aF45.849998
aF46.009997999999996
aF46.189999
aF46.23
aF46.509997999999996
aF45.869999
aF45.849998
aF45.880001
aF46.48
aF46.389998999999996
aF45.68
aF44.639998999999996
aF44.68
aF44.91
aF45.490002000000004
aF45.860001000000004
aF45.610001000000004
aF46.330002
aF45.970001
aF46.360001000000004
aF46.73
aF46.509997999999996
aF45.919998
aF46.459998999999996
aF47.630001
aF47.880001
aF47.740002000000004
aF48.0
aF48.689999
aF49.110001000000004
aF49.369999
aF49.330002
aF49.68
aF49.869999
aF49.860001000000004
aF49.759997999999996
aF49.740002000000004
aF50.169998
aF50.509997999999996
aF49.380001
aF48.73
aF49.02
aF48.869999
aF49.369999
aF49.709998999999996
aF48.98
aF50.400002
aF49.689999
aF49.580002
aF49.380001
aF49.09
aF49.240002000000004
aF49.540001000000004
aF49.220001
aF49.470001
aF49.34
aF48.330002
aF48.32
aF47.900002
aF47.540001000000004
aF47.57
aF45.959998999999996
aF46.939999
aF47.529999
aF47.200001
aF47.349998
aF46.93
aF46.639998999999996
aF47.57
aF46.950001
aF47.48
aF46.57
aF47.07
aF47.34
aF47.150002
aF47.57
aF46.919998
aF47.060001
aF47.610001000000004
aF47.720001
aF48.27
aF47.689999
aF47.369999
aF47.169998
aF47.400002
aF47.860001000000004
aF48.130001
aF48.700001
aF49.25
aF49.259997999999996
aF49.259997999999996
aF49.419998
aF49.5
aF49.610001000000004
aF49.66
aF49.790001000000004
aF45.59
aF45.240002000000004
aF44.830002
aF45.099998
aF45.860001000000004
aF45.279999
aF44.939999
aF44.689999
aF44.939999
aF45.34
aF45.380001
asVMMM
p59
(lp60
F232.809998
aF233.66000400000001
aF235.57000699999998
aF236.33999599999999
aF241.350006
aF239.80000299999998
aF237.57000699999998
aF234.289993
aF235.86999500000002
aF237.22000099999997
aF231.559998
aF232.44999700000002
aF234.13999900000002
aF223.169998
aF215.36000099999998
aF220.24000499999997
aF215.86999500000002
aF216.539993
aF219.520004
aF212.61999500000002
aF216.330002
aF217.559998
aF218.669998
aF212.25
aF212.809998
aF216.979996
aF214.330002
aF216.419998
aF215.520004
aF217.69999700000002
aF220.08999599999999
aF219.520004
aF218.850006
aF217.75
aF215.88000499999998
aF201.130005
aF198.83999599999999
aF197.08999599999999
aF196.119995
aF194.389999
aF195.020004
aF194.5
aF195.679993
aF199.360001
aF200.259995
aF201.740005
aF203.419998
aF205.029999
aF205.16000400000001
aF205.759995
aF202.41000400000001
aF200.21000700000002
aF200.360001
aF198.96000700000002
aF201.759995
aF198.970001
aF198.669998
aF199.41000400000001
aF199.029999
aF195.740005
aF198.679993
aF197.229996
aF199.58999599999999
aF201.059998
aF201.199997
aF203.860001
aF205.070007
aF206.58999599999999
aF205.119995
aF204.919998
aF204.889999
aF203.630005
aF204.970001
aF204.169998
aF199.389999
aF198.080002
aF195.520004
aF196.5
aF195.800003
aF196.580002
aF194.919998
aF195.970001
aF196.720001
aF195.520004
aF195.830002
aF197.33999599999999
aF197.46000700000002
aF200.529999
aF201.479996
aF197.679993
aF199.320007
aF201.179993
aF201.110001
aF202.070007
aF202.199997
aF201.600006
aF201.949997
aF198.83999599999999
aF200.679993
aF204.380005
aF207.96000700000002
aF207.419998
aF205.119995
aF212.32000699999998
aF207.050003
aF205.529999
aF207.28999299999998
aF206.699997
aF208.570007
aF207.139999
aF204.779999
aF201.96000700000002
aF199.83999599999999
aF200.520004
aF201.389999
aF203.149994
aF204.770004
aF204.600006
aF205.690002
aF204.259995
aF202.75
aF205.28999299999998
aF208.330002
aF209.429993
aF210.460007
aF210.22000099999997
aF210.919998
aF208.600006
aF211.830002
aF212.74000499999997
aF212.57000699999998
aF212.92999300000002
aF211.77999900000003
aF206.71000700000002
aF209.050003
aF207.880005
aF209.529999
aF211.52999900000003
aF213.11999500000002
aF215.270004
aF216.330002
aF213.50999500000003
aF210.63999900000002
aF211.07000699999998
aF210.11000099999998
aF210.710007
aF212.190002
aF215.710007
aF215.75999500000003
aF213.83999599999999
aF213.190002
aF214.36999500000002
aF210.419998
aF202.149994
aF196.729996
aF198.229996
aF198.940002
aF202.330002
aF202.929993
aF200.380005
aF199.850006
aF201.360001
aF192.550003
aF184.53999299999998
aF184.990005
aF184.949997
aF185.78999299999998
aF189.809998
aF190.259995
aF192.220001
aF192.809998
aF193.25
aF195.300003
aF201.28999299999998
aF204.070007
aF201.100006
aF197.03999299999998
aF198.369995
aF198.059998
aF204.91000400000001
aF209.0
aF205.580002
aF200.509995
aF198.690002
aF196.800003
aF199.860001
aF200.690002
aF204.33999599999999
aF204.559998
aF207.919998
aF208.759995
aF202.199997
aF202.679993
aF198.240005
aF198.320007
aF197.46000700000002
aF199.809998
aF202.130005
aF196.100006
aF192.820007
aF194.559998
aF189.96000700000002
aF187.380005
aF183.75
aF178.619995
aF186.259995
aF190.699997
aF189.369995
aF190.53999299999998
aF190.949997
aF183.759995
aF191.320007
aF190.880005
aF191.679993
aF192.300003
aF193.600006
aF192.21000700000002
aF192.169998
aF188.940002
aF189.479996
aF191.71000700000002
aF195.860001
aF192.259995
aF192.28999299999998
aF192.520004
aF195.899994
aF193.199997
aF196.949997
aF199.270004
aF200.300003
aF199.16000400000001
aF200.21000700000002
aF201.119995
aF202.570007
aF199.83999599999999
aF199.820007
aF200.91000400000001
aF206.570007
aF209.72000099999997
aF204.929993
aF208.860001
aF208.41000400000001
aF208.529999
aF207.770004
aF209.350006
aF210.580002
aF209.380005
aF209.029999
aF207.389999
aF207.490005
asVJNJ
p61
(lp62
F129.78999299999998
aF128.220001
aF129.03999299999998
aF132.059998
aF133.800003
aF132.630005
aF134.350006
aF132.320007
aF133.059998
aF133.679993
aF130.240005
aF131.21000700000002
aF131.190002
aF127.379997
aF125.099998
aF127.389999
aF127.209999
aF127.449997
aF128.149994
aF124.559998
aF128.350006
aF130.41000400000001
aF130.71000700000002
aF128.100006
aF129.479996
aF130.25
aF129.630005
aF130.429993
aF130.619995
aF131.759995
aF130.53999299999998
aF127.720001
aF127.550003
aF126.660004
aF126.83000200000001
aF126.190002
aF126.760002
aF128.009995
aF128.270004
aF126.489998
aF126.010002
aF123.5
aF123.029999
aF124.190002
aF123.589996
aF122.610001
aF123.510002
aF125.349998
aF127.239998
aF126.059998
aF125.129997
aF125.349998
aF123.849998
aF124.239998
aF123.720001
aF122.910004
aF123.449997
aF122.25
aF121.470001
aF119.400002
aF120.970001
aF119.620003
aF121.260002
aF121.949997
aF121.480003
aF122.790001
aF123.33000200000001
aF124.059998
aF122.660004
aF122.540001
aF122.629997
aF122.410004
aF122.610001
aF121.32
aF122.57
aF122.040001
aF121.449997
aF122.839996
aF122.589996
aF122.349998
aF121.610001
aF122.0
aF121.339996
aF121.58000200000001
aF122.709999
aF125.0
aF125.75
aF126.050003
aF127.379997
aF126.239998
aF127.760002
aF125.93
aF124.690002
aF129.110001
aF127.800003
aF125.940002
aF125.849998
aF126.629997
aF129.360001
aF128.619995
aF130.279999
aF131.550003
aF132.169998
aF132.520004
aF132.639999
aF131.25
aF131.949997
aF132.020004
aF131.46000700000002
aF131.169998
aF131.199997
aF130.75
aF130.220001
aF129.5
aF130.429993
aF132.479996
aF134.470001
aF136.880005
aF135.350006
aF134.610001
aF135.110001
aF135.949997
aF134.919998
aF134.320007
aF134.860001
aF134.949997
aF134.690002
aF133.720001
aF135.860001
aF136.869995
aF137.320007
aF137.21000700000002
aF138.509995
aF139.360001
aF139.889999
aF139.490005
aF139.96000700000002
aF140.53999299999998
aF140.46000700000002
aF141.979996
aF142.880005
aF140.470001
aF138.639999
aF138.16000400000001
aF138.220001
aF138.169998
aF139.690002
aF140.479996
aF139.029999
aF139.350006
aF139.100006
aF139.389999
aF139.199997
aF137.729996
aF133.83999599999999
aF133.869995
aF133.949997
aF136.559998
aF139.46000700000002
aF139.5
aF139.050003
aF138.679993
aF138.929993
aF137.470001
aF138.470001
aF136.970001
aF137.550003
aF140.75
aF139.990005
aF140.820007
aF140.679993
aF142.199997
aF142.570007
aF144.75
aF145.300003
aF145.33999599999999
aF145.619995
aF144.679993
aF144.25
aF144.5
aF145.990005
aF147.729996
aF146.449997
aF141.990005
aF142.229996
aF141.369995
aF143.220001
aF146.440002
aF145.850006
aF146.899994
aF146.21000700000002
aF146.029999
aF145.91000400000001
aF145.429993
aF145.259995
aF146.5
aF147.100006
aF147.83999599999999
aF133.0
aF129.139999
aF130.419998
aF127.610001
aF128.270004
aF128.08999599999999
aF122.839996
aF126.709999
aF127.410004
aF127.269997
aF129.050003
aF127.75
aF125.720001
aF127.83000200000001
aF127.010002
aF129.96000700000002
aF128.929993
aF129.71000700000002
aF129.75
aF128.279999
aF129.360001
aF128.03999299999998
aF129.08999599999999
aF130.690002
aF128.800003
aF128.800003
aF127.029999
aF128.229996
aF128.990005
aF130.330002
aF131.639999
aF133.080002
aF134.199997
aF132.880005
aF132.880005
aF133.0
aF132.050003
aF132.399994
aF132.0
aF134.16000400000001
aF134.449997
aF134.309998
aF136.380005
aF135.690002
aF136.350006
aF135.419998
aF136.600006
aF136.199997
aF136.110001
aF135.869995
aF136.639999
aF138.350006
assS'date_index'
p63
(lp64
S'2018/03/05'
p65
aS'2018/03/06'
p66
aS'2018/03/07'
p67
aS'2018/03/08'
p68
aS'2018/03/09'
p69
aS'2018/03/12'
p70
aS'2018/03/13'
p71
aS'2018/03/14'
p72
aS'2018/03/15'
p73
aS'2018/03/16'
p74
aS'2018/03/19'
p75
aS'2018/03/20'
p76
aS'2018/03/21'
p77
aS'2018/03/22'
p78
aS'2018/03/23'
p79
aS'2018/03/26'
p80
aS'2018/03/27'
p81
aS'2018/03/28'
p82
aS'2018/03/29'
p83
aS'2018/04/02'
p84
aS'2018/04/03'
p85
aS'2018/04/04'
p86
aS'2018/04/05'
p87
aS'2018/04/06'
p88
aS'2018/04/09'
p89
aS'2018/04/10'
p90
aS'2018/04/11'
p91
aS'2018/04/12'
p92
aS'2018/04/13'
p93
aS'2018/04/16'
p94
aS'2018/04/17'
p95
aS'2018/04/18'
p96
aS'2018/04/19'
p97
aS'2018/04/20'
p98
aS'2018/04/23'
p99
aS'2018/04/24'
p100
aS'2018/04/25'
p101
aS'2018/04/26'
p102
aS'2018/04/27'
p103
aS'2018/04/30'
p104
aS'2018/05/01'
p105
aS'2018/05/02'
p106
aS'2018/05/03'
p107
aS'2018/05/04'
p108
aS'2018/05/07'
p109
aS'2018/05/08'
p110
aS'2018/05/09'
p111
aS'2018/05/10'
p112
aS'2018/05/11'
p113
aS'2018/05/14'
p114
aS'2018/05/15'
p115
aS'2018/05/16'
p116
aS'2018/05/17'
p117
aS'2018/05/18'
p118
aS'2018/05/21'
p119
aS'2018/05/22'
p120
aS'2018/05/23'
p121
aS'2018/05/24'
p122
aS'2018/05/25'
p123
aS'2018/05/29'
p124
aS'2018/05/30'
p125
aS'2018/05/31'
p126
aS'2018/06/01'
p127
aS'2018/06/04'
p128
aS'2018/06/05'
p129
aS'2018/06/06'
p130
aS'2018/06/07'
p131
aS'2018/06/08'
p132
aS'2018/06/11'
p133
aS'2018/06/12'
p134
aS'2018/06/13'
p135
aS'2018/06/14'
p136
aS'2018/06/15'
p137
aS'2018/06/18'
p138
aS'2018/06/19'
p139
aS'2018/06/20'
p140
aS'2018/06/21'
p141
aS'2018/06/22'
p142
aS'2018/06/25'
p143
aS'2018/06/26'
p144
aS'2018/06/27'
p145
aS'2018/06/28'
p146
aS'2018/06/29'
p147
aS'2018/07/02'
p148
aS'2018/07/03'
p149
aS'2018/07/05'
p150
aS'2018/07/06'
p151
aS'2018/07/09'
p152
aS'2018/07/10'
p153
aS'2018/07/11'
p154
aS'2018/07/12'
p155
aS'2018/07/13'
p156
aS'2018/07/16'
p157
aS'2018/07/17'
p158
aS'2018/07/18'
p159
aS'2018/07/19'
p160
aS'2018/07/20'
p161
aS'2018/07/23'
p162
aS'2018/07/24'
p163
aS'2018/07/25'
p164
aS'2018/07/26'
p165
aS'2018/07/27'
p166
aS'2018/07/30'
p167
aS'2018/07/31'
p168
aS'2018/08/01'
p169
aS'2018/08/02'
p170
aS'2018/08/03'
p171
aS'2018/08/06'
p172
aS'2018/08/07'
p173
aS'2018/08/08'
p174
aS'2018/08/09'
p175
aS'2018/08/10'
p176
aS'2018/08/13'
p177
aS'2018/08/14'
p178
aS'2018/08/15'
p179
aS'2018/08/16'
p180
aS'2018/08/17'
p181
aS'2018/08/20'
p182
aS'2018/08/21'
p183
aS'2018/08/22'
p184
aS'2018/08/23'
p185
aS'2018/08/24'
p186
aS'2018/08/27'
p187
aS'2018/08/28'
p188
aS'2018/08/29'
p189
aS'2018/08/30'
p190
aS'2018/08/31'
p191
aS'2018/09/04'
p192
aS'2018/09/05'
p193
aS'2018/09/06'
p194
aS'2018/09/07'
p195
aS'2018/09/10'
p196
aS'2018/09/11'
p197
aS'2018/09/12'
p198
aS'2018/09/13'
p199
aS'2018/09/14'
p200
aS'2018/09/17'
p201
aS'2018/09/18'
p202
aS'2018/09/19'
p203
aS'2018/09/20'
p204
aS'2018/09/21'
p205
aS'2018/09/24'
p206
aS'2018/09/25'
p207
aS'2018/09/26'
p208
aS'2018/09/27'
p209
aS'2018/09/28'
p210
aS'2018/10/01'
p211
aS'2018/10/02'
p212
aS'2018/10/03'
p213
aS'2018/10/04'
p214
aS'2018/10/05'
p215
aS'2018/10/08'
p216
aS'2018/10/09'
p217
aS'2018/10/10'
p218
aS'2018/10/11'
p219
aS'2018/10/12'
p220
aS'2018/10/15'
p221
aS'2018/10/16'
p222
aS'2018/10/17'
p223
aS'2018/10/18'
p224
aS'2018/10/19'
p225
aS'2018/10/22'
p226
aS'2018/10/23'
p227
aS'2018/10/24'
p228
aS'2018/10/25'
p229
aS'2018/10/26'
p230
aS'2018/10/29'
p231
aS'2018/10/30'
p232
aS'2018/10/31'
p233
aS'2018/11/01'
p234
aS'2018/11/02'
p235
aS'2018/11/05'
p236
aS'2018/11/06'
p237
aS'2018/11/07'
p238
aS'2018/11/08'
p239
aS'2018/11/09'
p240
aS'2018/11/12'
p241
aS'2018/11/13'
p242
aS'2018/11/14'
p243
aS'2018/11/15'
p244
aS'2018/11/16'
p245
aS'2018/11/19'
p246
aS'2018/11/20'
p247
aS'2018/11/21'
p248
aS'2018/11/23'
p249
aS'2018/11/26'
p250
aS'2018/11/27'
p251
aS'2018/11/28'
p252
aS'2018/11/29'
p253
aS'2018/11/30'
p254
aS'2018/12/03'
p255
aS'2018/12/04'
p256
aS'2018/12/06'
p257
aS'2018/12/07'
p258
aS'2018/12/10'
p259
aS'2018/12/11'
p260
aS'2018/12/12'
p261
aS'2018/12/13'
p262
aS'2018/12/14'
p263
aS'2018/12/17'
p264
aS'2018/12/18'
p265
aS'2018/12/19'
p266
aS'2018/12/20'
p267
aS'2018/12/21'
p268
aS'2018/12/24'
p269
aS'2018/12/26'
p270
aS'2018/12/27'
p271
aS'2018/12/28'
p272
aS'2018/12/31'
p273
aS'2019/01/02'
p274
aS'2019/01/03'
p275
aS'2019/01/04'
p276
aS'2019/01/07'
p277
aS'2019/01/08'
p278
aS'2019/01/09'
p279
aS'2019/01/10'
p280
aS'2019/01/11'
p281
aS'2019/01/14'
p282
aS'2019/01/15'
p283
aS'2019/01/16'
p284
aS'2019/01/17'
p285
aS'2019/01/18'
p286
aS'2019/01/22'
p287
aS'2019/01/23'
p288
aS'2019/01/24'
p289
aS'2019/01/25'
p290
aS'2019/01/28'
p291
aS'2019/01/29'
p292
aS'2019/01/30'
p293
aS'2019/01/31'
p294
aS'2019/02/01'
p295
aS'2019/02/04'
p296
aS'2019/02/05'
p297
aS'2019/02/06'
p298
aS'2019/02/07'
p299
aS'2019/02/08'
p300
aS'2019/02/11'
p301
aS'2019/02/12'
p302
aS'2019/02/13'
p303
aS'2019/02/14'
p304
aS'2019/02/15'
p305
aS'2019/02/19'
p306
aS'2019/02/20'
p307
aS'2019/02/21'
p308
aS'2019/02/22'
p309
aS'2019/02/25'
p310
aS'2019/02/26'
p311
aS'2019/02/27'
p312
aS'2019/02/28'
p313
aS'2019/03/01'
p314
as.